ccopy_reg
_reconstructor
p0
(clrsgd
LogisticRegressionSGD
p1
c__builtin__
object
p2
Ntp3
Rp4
(dp5
Veta
p6
F0.01
sVweight
p7
(lp8
F-0.007174537441070106
aF0.0
aF0.008733669670589654
aF-0.0035824021844656
aF-0.003468404039503989
aF-0.035741948296995896
aF-0.002253679671583903
aF-0.07107251918035778
aF-0.009181698596483157
aF0.006237016637303687
aF-0.0012954922088929117
aF-0.014085604190944697
aF-0.004649910102482196
aF-0.01263015892151898
aF0.007006182798691422
aF-0.010631149984639049
aF-0.007445376205602851
aF-0.004496063241373236
aF-0.006107008916674138
aF0.008461012627626094
aF-0.01727612566722202
aF-0.0035656868290828347
aF-0.004849404604630476
aF-0.004519581314466475
aF-0.0194833902174257
aF0.002075948414295604
aF0.00565600759143009
aF0.0064529424609876245
aF-0.003215586137539203
aF0.0012600131561756201
aF0.01267633767952837
aF-0.0010898627498736589
aF-0.007364579435197875
aF-0.021970834640374724
aF-0.009380612446629086
aF0.001779174319736506
aF0.0
aF0.0
aF0.0016147635371097453
aF-0.002356305643455419
aF-0.0023373528020291
aF-0.010996727298272065
aF-0.0063159197413339445
aF0.0022889817593707094
aF0.005517992570747365
aF-0.0040149472027089395
aF-0.0032289336595107488
aF-0.0041592952678184665
aF-0.004106373491880852
aF0.00207163089303979
aF0.000791263326189077
aF-0.0047727573620669475
aF-0.010294851630756866
aF-0.022770748566258183
aF0.008942522313987619
aF-0.008639258207401666
aF-0.01110982600908504
aF-0.014115819048677994
aF0.0057271783393869555
aF0.0171943535077479
aF-0.005874968069953253
aF-0.0013711763711696662
aF-0.015114660068117845
aF-0.013665017196300899
aF-0.0026943373315574436
aF-0.004016596149695611
aF-0.002708221383547634
aF0.0
aF0.006827804541737743
aF0.004933430239249647
aF-0.015122432344104764
aF-0.004910144895211111
aF-0.0019427868109163798
aF-0.002781617152515066
aF0.007061785101904249
aF-0.005273216251907168
aF-0.000827199142561603
aF0.003132136517871633
aF-0.008587487922824856
aF0.005492746447694656
aF0.0
aF-0.0036810481657376763
aF-0.0023413401929632044
aF-0.004839745599802608
aF-0.004649910102482196
aF-0.006393582603297992
aF-0.012670411954088592
aF-0.004727395976068011
aF0.0
aF-0.003780547199129059
aF0.012552771945964528
aF-0.004342482412597804
aF0.0
aF-0.020212615626672707
aF-0.01671828970975245
aF-0.0047335911863254174
aF-0.0016514923224366209
aF0.0
aF0.00576780518125549
aF-0.005801874075478612
aF-0.007788925950710207
aF-0.004849404604630476
aF-0.020417092840536735
aF0.0
aF0.005061068302350425
aF-0.010258739005445227
aF-0.02308143092703975
aF-0.0028386145515862655
aF-0.03673945746994678
aF-0.004992814469057658
aF-0.00434517981757827
aF-0.009304414678614946
aF-0.011604099105753562
aF0.0050257286641813585
aF0.0
aF0.0
aF-0.03726820610364821
aF-0.002960643848542896
aF-0.007752840704376462
aF-0.01247825506532884
aF-0.009505369019690537
aF-0.005157461214300939
aF-0.03288794937395913
aF0.0
aF-0.006728644496881649
aF-0.0038784553820885425
aF0.010687798627316995
aF-0.004110842265949912
aF0.008199952699951994
aF0.005598971728066857
aF-0.009489421470910097
aF-0.0047335911863254174
aF-0.01813313333245852
aF-0.004880625134069422
aF-0.0027741558969398236
aF0.014685431127049484
aF0.003928091264752474
aF0.0
aF-0.004051906432902359
aF-0.0028649875684658333
aF-0.04305155304439984
aF-0.0034046790297080493
aF-0.013700329253718472
aF0.006828531237908931
aF-0.004180593042917181
aF-0.031353941287342535
aF-0.004980786171795258
aF-0.04372500986218511
aF0.008199952699951994
aF-0.00442925013739371
aF-0.0049508336942787065
aF0.0
aF0.012931130233457867
aF-0.0032383820504538426
aF-0.026629264576772702
aF-0.012210566845622982
aF-0.006798094075541399
aF0.0
aF0.026499146876239915
aF-0.00216192358111407
aF0.0028411460908093714
aF-0.004273563739821767
aF-0.07194849070781204
aF0.001626313671729323
aF-0.00827112969949995
aF-0.00291711243883603
aF-0.0034991759236297406
aF-0.004884178298291183
aF0.0027020190400023156
aF-0.017148306845118366
aF-0.004355413906753165
aF-0.07740148953678516
aF0.0022845533152526117
aF-0.00354997507220081
aF-0.004472642621963761
aF0.008221310879828534
aF-0.00440452535266844
aF-0.019784788073848085
aF-0.0015554876805872395
aF-0.004714432070373234
aF-0.009171541291200019
aF-0.008193739420355579
aF0.005492746447694656
aF-0.018245696666989344
aF0.0066389749987449415
aF-0.012423702262593594
aF-0.004327016508566007
aF-0.0073302601420606895
aF-0.036658820733088106
aF0.0019106202801584648
aF-0.0032663933102993334
aF-0.04089929750600557
aF-0.004994113334067764
aF-0.03640148139456804
aF-0.004870152725811023
aF-0.005283308205099297
aF-0.008699285358293774
aF0.0075445655499779465
aF-0.010132058768526063
aF-0.009635365367079372
aF-0.0014223317881879173
aF-0.006283644005062571
aF-0.0046431526342672344
aF-0.004600885161123324
aF-0.004307354912495894
aF-0.004840444707434095
aF-0.007960013882720114
aF-0.0035323369529428644
aF-0.0025914471315110366
aF0.002332621797476736
aF-0.0033125659378159117
aF0.0026046417116752465
aF-0.0023373528020291
aF-0.01657854017471765
aF0.006280991187940022
aF0.005446810685412489
aF-0.004294401413792392
aF-0.006989245629989889
aF-0.027312793892405055
aF-0.018223415079641533
aF-0.030110110065639614
aF-0.0183238722072325
aF-0.004236646964473479
aF-0.002172522137850454
aF-0.004558026528063354
aF-0.004031077167465966
aF-0.010538192702702998
aF-0.006071393200649409
aF-0.006002941637896454
aF0.001000708302468227
aF-0.013368043544790166
aF-0.003929358821414344
aF0.0
aF0.0
aF0.007061785101904249
aF-0.004840444707434095
aF-0.004375361694343982
aF-0.004472759242012627
aF-0.004912684981596857
aF-0.01669526205627545
aF-0.005662441011768974
aF-0.004790232256534885
aF-0.014810083384721734
aF0.015672272708796536
aF-0.009091466829737648
aF0.005342594615387355
aF0.002385923510959569
aF0.0
aF0.00037062400218262166
aF-0.004157523685776694
aF-0.009596346372791387
aF-0.003683175499675014
aF0.004124090923530357
aF-0.0042575465223068714
aF-0.004857359431160629
aF0.005625817531459822
aF-0.009557584694792808
aF-0.0021919103172888667
aF-0.004957970011176347
aF-0.016106058645290453
aF-0.006220428566773286
aF-0.0023618333499662554
aF-0.0036237046571803502
aF-0.004892629606090606
aF-0.007656760905866547
aF-0.0029641199564038236
aF-0.0020289187839881723
aF0.0006969124879865132
aF-0.0044242808152118104
aF-0.0030313586047075827
aF-0.008828375495684805
aF-0.004949540162357224
aF-0.00469612705015375
aF-0.007148790480068057
aF0.00022325270195255073
aF0.016168191443864298
aF0.0
aF-0.004014517880853942
aF-0.0034534820619547785
aF-0.004874134827264817
aF0.0
aF-0.007586834291807272
aF-0.022266471369294855
aF0.0
aF-0.003390071651285848
aF-0.004827208285601526
aF-0.0072180713077244765
aF-0.002092128234401765
aF0.007957788898308584
aF0.0006290062231487561
aF0.0
aF0.005506135766940188
aF0.005584143761221043
aF-0.007110369014077219
aF-0.0023910861080232017
aF0.01388701706963092
aF-0.0031123911296469108
aF0.0023224588253334963
aF-0.00803622323262974
aF-0.021737938196054525
aF-0.008514894189357056
aF0.0
aF-0.00418049420647679
aF0.010997545249438507
aF0.00851123658300229
aF-0.004294401413792392
aF-0.018017174257279174
aF-0.004667404591247396
aF0.0
aF0.0057271783393869555
aF0.005524679987076782
aF-0.01171857164960455
aF-0.0036163966419957704
aF-0.004472352511804715
aF0.007704011989374375
aF-0.0028170253224362044
aF0.008517358914080314
aF-0.008578390585173252
aF-0.009091286443078876
aF0.0
aF-0.0032738217542017567
aF-0.0079261735479224
aF-0.008938750420382599
aF-0.0033530139533092247
aF-0.04000900287546168
aF-0.009074556899021893
aF-0.007147726155156967
aF-0.011533516230909853
aF-0.004667404591247396
aF-0.006870672875420372
aF0.0
aF-0.0003444774340443926
aF-0.004809151763907427
aF-0.004399791802163333
aF-0.002973204599286234
aF-0.08534711975577045
aF-0.012131418260003322
aF-0.011317159730744725
aF-0.008635710424293975
aF-0.010377218602359448
aF-0.003270727802730845
aF0.0010613265404632068
aF0.0
aF0.0052816350467159955
aF0.002361411087428871
aF-0.008389048487991276
aF-0.0008365039787296617
aF0.009466713886600697
aF-0.005480258920747388
aF-0.002065799546629657
aF-0.02951868857844165
aF-0.019216269556628383
aF-0.0025442700087891603
aF0.0
aF-0.0033125659378159117
aF-0.006126873053622941
aF-0.042612783729069
aF-0.022062120354231215
aF-0.004972272364912216
aF-0.004375361694343982
aF-0.008627504146162479
aF0.004557205888406905
aF-0.020256756173628737
aF-0.003207344976810254
aF-0.004307354912495894
aF0.0
aF-0.0027157065194361846
aF-0.010035588472916758
aF0.005550723811198902
aF0.0
aF-0.029226796031591378
aF0.023817842683913508
aF-0.01153682332313516
aF-0.007351189048263712
aF-0.0019147691045860705
aF-0.006830495831464122
aF-0.0030468262132297853
aF-0.003265265260200891
aF-0.004515166341624089
aF-0.003216557762526421
aF-0.003124981555102664
aF-0.008778941364709657
aF0.01504675406212954
aF-0.01701818781444777
aF-0.011564160570897285
aF-0.014802974252102261
aF-0.04131255036696697
aF-0.02045660923772143
aF0.0
aF-0.013270705337243793
aF-0.0027777767240928296
aF-0.003992620504533199
aF-0.0030313586047075827
aF0.0
aF-0.025944146508563776
aF-0.006672827717680372
aF0.0007186235943650032
aF-0.009821228791307863
aF-0.008437859868046946
aF-0.008557712861578866
aF-0.004399791802163333
aF-0.011386327664886814
aF-0.004809151763907427
aF0.007119860355783341
aF-0.01798677703569645
aF0.003019505213419701
aF-0.004579520675354485
aF-0.013937789732852902
aF0.0
aF0.0
aF0.0069585840289757605
aF-0.014574483230068432
aF-0.0007293106760154145
aF-0.008545230874549106
aF-0.0006584265242944153
aF0.01025502328816263
aF-0.016296548533507184
aF0.012248712921128183
aF-0.0019638935524131855
aF-0.004707162999602822
aF-0.002367835076135267
aF-0.007435534281230467
aF-0.004307354912495894
aF0.011919688722675618
aF0.005919557362351909
aF0.0
aF0.0050573921715181035
aF-0.05183403025293944
aF-0.020422975639796666
aF-0.030786519894965687
aF-0.006784586221180106
aF-0.0038658785717851393
aF-0.004827208285601526
aF-0.012280873316456822
aF-0.0033727738672334555
aF0.002882542479652781
aF-0.004418864146796672
aF-0.002799633744796997
aF-0.025313250344889328
aF-0.009647601604651609
aF-0.004930156397188296
aF-0.013001665041612098
aF-0.004480241475720219
aF-0.002814908780334896
aF-0.05147603124389187
aF-0.003189171670225125
aF0.0038352404903583977
aF-0.013937789732852902
aF-0.003401190798455744
aF-0.006916591750301209
aF-8.748836027563066e-05
aF0.003614131530460496
aF-0.035608841428829766
aF0.007622579428013959
aF-0.002322648364761456
aF-0.002843746869520768
aF-0.003892927298682243
aF-0.019592381204004923
aF0.005541440813798874
aF-0.009099220610353476
aF-0.004709457241951398
aF0.0020206178459261244
aF0.009077083072994789
aF0.004472358829599741
aF0.004577366565656419
aF-0.007135111861467933
aF-0.01016469355882332
aF-0.021029350916234826
aF-0.007240451049846277
aF0.0
aF-0.013602364212389419
aF-0.004361236646825038
aF-0.01932200089887905
aF0.0
aF-0.004827586716865228
aF-0.006134331780189276
aF-0.0004906206790905119
aF-0.007521546131790266
aF-0.0007763499168488173
aF-0.004270273572381932
aF0.0
aF-0.003629965327005546
aF0.0032350501840040886
aF-0.008482354690158535
aF0.006985496534179864
aF-0.0013949863485962482
aF-0.009765720899681047
aF-0.001970569453018504
aF-0.027243532454711134
aF-0.007218932873549688
aF-0.006814917214006985
aF-0.007790943032963198
aF-0.00736249726741297
aF-0.009047581967421725
aF0.0
aF-0.0044627586067528735
aF0.0006266934369941201
aF-0.004637917171630577
aF-0.008029625362686126
aF-0.004108412348106765
aF-0.009960270897944
aF-0.0019268603343354498
aF0.005147107746818005
aF-0.01736706878518003
aF-0.006997360426257263
aF0.02655733210690671
aF0.003129869670121951
aF-0.000731731697541793
aF-0.0046231040904861735
aF-0.0032637942511285546
aF0.012010986847775575
aF-0.011912850576359726
aF-0.0035813121181033332
aF-0.004507200698610851
aF-0.0030422837512571526
aF-0.0029435602319384776
aF-0.004307354912495894
aF-0.003892927298682243
aF-0.003189171670225125
aF-0.003948639944758145
aF-0.007825768275836906
aF-0.051552028694939946
aF-0.03560525087651072
aF-0.01729688110482115
aF-0.017433865041188625
aF-0.004192377987479408
aF-0.037466419961856935
aF-0.0036237046571803502
aF-0.010101097869630954
aF-0.01097522128218766
aF-0.004307354912495894
aF-0.004691197676671533
aF-0.003741105508901198
aF-0.0013096924375593545
aF-0.004025220245107167
aF0.006045302645640925
aF-0.010346943875796925
aF-0.003265613028520951
aF0.0030380212298637176
aF-0.007549609692188097
aF0.007769019361106984
aF-0.022614161373086524
aF-0.007950293666043363
aF0.0
aF-0.004137720208048364
aF-0.004745209676253218
aF-0.0164463561012351
aF0.0
aF-0.007178199227615504
aF-0.017925102437114815
aF-0.004300929915301738
aF0.0015258159722453856
aF0.0
aF0.0
aF0.0072192895775300345
aF-0.016544529681245958
aF-0.013126691949809813
aF-0.004443452422549536
aF0.015853904680353397
aF-0.015327334162262207
aF-0.0006732282080462125
aF-0.004318512245146703
aF-0.02108140883251089
aF-0.0975100874887739
aF-0.004627853008625569
aF-0.05390443529854534
aF-0.0009437782597625859
aF-0.003423843560036644
aF-0.017645083254697082
aF-0.00401961432894669
aF-0.005027362325507928
aF-0.014681436889709628
aF-0.07819437511511282
aF-0.004307354912495894
aF-0.003892927298682243
aF-0.002474171062430709
aF-0.006547105360703362
aF0.0
aF-0.018270932505171013
aF-0.08684217014363657
aF-0.01041060033613583
aF0.0
aF-0.01733158349848151
aF0.0
aF-0.013949140210439371
aF-0.00945316130657462
aF-0.012703904347242702
aF-0.011150253658601866
aF-0.0045085339608846075
aF-0.011694549160985227
aF0.004092522861993636
aF-0.004214840716833888
aF-0.004845473473538796
aF-0.0023965302335247868
aF-0.00045796830338881126
aF-0.003592019572751758
aF-0.01552199835084671
aF-0.052821402735415114
aF-0.00296854051041971
aF-0.004209177015380034
aF-0.0040141259661182985
aF-0.017457566897911482
aF-0.0023594957552157134
aF-0.004562873671730955
aF0.0011775765769226742
aF-0.020827985633823595
aF-0.04523702206277665
aF-0.020393082613457625
aF-0.004490588209165655
aF0.002253732433911235
aF-0.012462757144393568
aF-0.008570528102099826
aF-0.05216946591940475
aF-0.008040541345189115
aF-0.02288907250270795
aF-0.004906670981296234
aF-0.005497960856898694
aF-0.003971133234665379
aF-0.011309848519420653
aF-0.004953417504170244
aF-0.003769257198902475
aF-0.0019429813755461982
aF-0.0034636869327318884
aF0.01955826963943206
aF-0.00471948785833885
aF-0.0006002069631839387
aF-0.003999189643456709
aF-0.0042516506346544644
aF-0.004522646602029993
aF-0.045674237885412965
aF-0.0045022794493338415
aF-0.015950263120989055
aF-0.0006414864442225105
aF-0.02005395813802496
aF-0.007610241617264759
aF-0.004024196331788072
aF0.00582590640830301
aF-0.0002154305323179978
aF0.006273368831951647
aF-0.003305470933963354
aF-0.0011770853965742444
aF0.005571322041078623
aF0.0024549445821402524
aF-0.0034653152651449547
aF-0.002229171552703137
aF-4.862757517371495e-05
aF0.002341701494077319
aF-0.003885963981682382
aF-0.03346626607090936
aF-0.0033966239282109453
aF-0.02486988205273341
aF-0.004457420326946054
aF-0.004482676113477078
aF-0.018708548345856137
aF-0.01195002819380291
aF-0.003748616232091525
aF-0.012507132423215208
aF-0.03547608190480073
aF0.005178280358460356
aF0.02419560355870088
aF-0.048153361278527915
aF-0.026244840072530404
aF0.013477847020951698
aF-0.004920734785455392
aF-0.013296024299376059
aF-0.0062871814276158604
aF-0.033503106689621566
aF0.007390007191232315
aF-0.023244015675098057
aF-0.2660168375724321
aF0.005970349838742435
aF0.006335614914283678
aF0.005178280358460356
aF-0.01213399516700537
aF-0.01918186619907204
aF0.0216533003008872
aF-0.006216058504847607
aF-0.020804780825521726
aF-0.003356217045765699
aF0.017251337911345775
aF0.0
aF0.006146703497182937
aF-0.0091104042124409
aF-0.004635292838653888
aF-0.004440864267253885
aF-0.0031912875896119505
aF-0.026164665173996054
aF-0.01697608973180635
aF-0.047116218974561495
aF-0.015571596678118237
aF0.0
aF0.0
aF0.014168823745455434
aF-0.012310994104752988
aF-0.012227079334916622
aF-0.04592204789716318
aF-0.08962596405143747
aF-0.0016828262513383257
aF0.0019360807658007732
aF-0.010244730058060043
aF-0.003175198851267539
aF-0.004017200672893967
aF-0.0044486704970800395
aF-0.004490588209165655
aF0.005798840320116718
aF-0.003207344976810254
aF-0.0013515756068755887
aF-0.004952419305382966
aF-0.018322978732214956
aF0.007405431043573206
aF-0.01798040780002712
aF-0.008576983246976179
aF-0.002291662776540707
aF0.001158764573863205
aF-0.006271007663048172
aF-0.004203718864129583
aF-0.0036678331302919527
aF-0.007445747786765054
aF-0.0021919103172888667
aF-0.0009418449978403089
aF0.005026735121987459
aF-0.0080149049087192
aF0.0007168091466657001
aF-0.0026092718956429134
aF-0.06048820979276668
aF0.008390619183342196
aF0.01885604494455392
aF-0.003275706275840312
aF0.021720516041764407
aF-0.002298758930310464
aF-0.006135779933893465
aF-0.0013414540597067905
aF-0.004014932935394599
aF-0.011614310804429599
aF-0.004778411426538733
aF-0.04551649736586837
aF-0.008406653941280845
aF-0.007384728921147388
aF0.0037859546984597733
aF-0.004052528253507428
aF-0.0012872329099243192
aF0.02456220318098188
aF-0.012791661531974717
aF-0.026143687433249338
aF0.0019512205818379407
aF-0.024801611343968882
aF-0.04461243051086973
aF-0.003963061964108843
aF-0.004598649303536944
aF0.0
aF-0.005512135047683055
aF-0.0047298668097316915
aF-0.0034247000916537316
aF-0.12670387111815754
aF-0.014801504353131711
aF-0.004056522439387678
aF-0.004957644386040241
aF-0.0033125659378159117
aF-0.0072025841940628185
aF-0.019967738628652858
aF-0.04327477253471204
aF0.0008168035016133128
aF0.006827804541737743
aF-0.004084177703344662
aF-0.009725540732600691
aF-0.012636892553388637
aF-0.007249311120928956
aF0.0026147482416563252
aF-0.007935723098744567
aF0.018138845915255473
aF0.005201007799663586
aF-0.005901796152727054
aF-0.2137327272506956
aF0.0053518119167931385
aF-0.008116053998885058
aF-0.0037146285592643204
aF-0.03498715570721861
aF-0.07819698159510605
aF-0.012782747645849685
aF-0.0024191192176959177
aF-0.02456748389732028
aF0.0006471503146875859
aF0.008084209442304646
aF-0.006372107059030003
aF-0.017598341437918334
aF0.0
aF-0.018040848485183093
aF-0.009931729998986593
aF-0.004668079643512964
aF-0.030453219076077634
aF-0.13053001996974023
aF-0.0033494769815224598
aF-0.020268967520292603
aF-0.060069358324883276
aF-0.008632526726079698
aF-0.007215866292758492
aF-0.07336348807133208
aF0.0058473197316463756
aF-0.004382287030182385
aF0.0051834567286976685
aF-0.008468154302734674
aF-0.0036237046571803502
aF0.0
aF-0.004108654725485223
aF-0.003637945721820271
aF0.007682221604002179
aF-0.00688969740061637
aF-0.004842511807368899
aF-0.00931936227348418
aF-0.00042574636585131177
aF-0.007408744848874926
aF-0.034513073266282564
aF-0.004809151763907427
aF-0.05093315253235548
aF-0.00908358736028432
aF-0.02880542499808201
aF-0.017874437819916458
aF-0.05087606473791337
aF-0.054996598080101274
aF-0.009893537067402394
aF-0.016861227763940032
aF-0.012275060464187413
aF-0.012240151381719584
aF0.0
aF-0.004570444848656362
aF-0.0019148913173698398
aF-0.004687962613293672
aF0.0026771865540280767
aF-0.0035075529166917526
aF-0.1474727757227175
aF-0.006793025236337732
aF-0.004589672244862209
aF-0.00446014290995509
aF-0.004656428197841958
aF-0.025227937299467075
aF0.005260446274308555
aF-0.031983252686195826
aF-0.003207344976810254
aF-0.0031361176929357443
aF-0.006354310974815726
aF-0.011176067337586413
aF-0.003991734830212959
aF-0.026621509112001132
aF0.0011277756642863613
aF0.005326613648593186
aF0.0
aF-0.01614446038063059
aF-0.041348082352670505
aF0.0
aF-0.01217352350193316
aF-0.0021526264125976873
aF-0.011986285096110712
aF-0.01981647371498292
aF-0.00717209538471455
aF-0.015794803777829994
aF-0.006432357964823315
aF-0.10458745067114114
aF-0.008494219328972683
aF-0.0019334624719395072
aF-0.00026404497146346757
aF-0.08442084305271282
aF-0.0145483980338726
aF-0.09230460324084908
aF0.0012155291504674943
aF-0.00896421708797624
aF-0.07830756055455997
aF-0.08261291733121018
aF-0.013419113056297331
aF-0.0021450599553631284
aF0.005628242626113991
aF0.01649915268472859
aF0.011037360605210676
aF-0.002326232238153578
aF-0.15691473078573354
aF-0.00935349032335982
aF0.006961260859645312
aF-0.0031540109452043753
aF0.0
aF-0.005598978904941067
aF-0.003991734830212959
aF-0.03698101619171477
aF-0.014380502131381985
aF-0.001902378927112292
aF-0.004795628181258365
aF0.0
aF0.00668047213602484
aF-0.06615729779188718
aF-0.012756296200106123
aF-0.005109417981940036
aF-0.007773234108676341
aF0.004969345997974288
aF-0.04967374831250252
aF-0.11107403271809875
aF-0.01361816975139914
aF-0.0025221765737210183
aF-0.09746704407877982
aF-0.03206131206998759
aF-0.028542483174512696
aF0.0
aF0.011504707618571766
aF-0.15028587329295912
aF-0.0026231126391540196
aF-0.004150319723489317
aF-0.0037685464373006156
aF-0.003973632957182189
aF-0.00023129913221950262
aF-0.003501171364641788
aF-0.011074833310368836
aF-0.008811508242222911
aF-0.0045464481838408686
aF-0.013369092485812141
aF-0.005847683866875561
aF-0.01195662881234088
aF-0.0031569885391289887
aF-0.004313549984059485
aF0.00019322257192860024
aF0.005540554037611616
aF-0.004353025262493108
aF0.0
aF-0.004294168031574788
aF0.00500459634122599
aF-0.03000153633547878
aF-0.0027197604613929706
aF-0.006768731484457658
aF-0.008632840864995418
aF-0.008544012194152552
aF-0.036131452470753264
aF-0.011175876908439566
aF-0.00440452535266844
aF0.005602288459799372
aF-0.003709578085243751
aF0.009708701174810267
aF0.0
aF-0.004572534636182047
aF-0.004222438009268338
aF-0.0013037148716826428
aF-0.0031946110087749924
aF0.0
aF0.006085942283845482
aF-0.004957644386040241
aF0.02200118412760638
aF-0.016564276888223897
aF0.0
aF-0.007125180989574161
aF0.008587661442968469
aF-0.016113773704357896
aF-0.006030699470257811
aF-0.02251734179793235
aF-0.011394392603357263
aF-0.003704096832400999
aF-0.0050201639824861526
aF-0.024390727214417898
aF0.005675844350938572
aF0.0
aF0.006615120285249077
aF-0.0046805761551849305
aF-0.007363380453443017
aF0.0
aF0.0027365774922835204
aF-0.014185301942837025
aF0.0
aF0.005177787573877086
aF0.007006182798691422
aF-0.004983258902721662
aF0.006205873136725884
aF-0.004572534636182047
aF-0.004894079495017818
aF-0.004353025262493108
aF-0.004462863147771
aF-0.033975623938514186
aF-0.0020796278164949902
aF-0.03305307822273676
aF-0.0051893746673103945
aF-0.016732241192724776
aF-0.006173416037387501
aF-0.004447239900604787
aF-0.003977213744035978
aF0.007591434344499879
aF-0.004511620264435357
aF-0.00859021981508291
aF-0.009100436557828245
aF-0.004661380650645289
aF0.0
aF-0.056525447999471
aF-0.0027440452790997273
aF-0.005878338258254975
aF-0.04934714526190088
aF-0.0049936893959359584
aF0.0
aF-0.01158160984600468
aF-0.004074629747935794
aF-0.008949993615358816
aF0.00040375775908549
aF-0.015580041830519467
aF0.015612824277014775
aF-0.0033203987618539506
aF-0.01694016811821854
aF-0.010574976108305814
aF0.0033726361027065443
aF0.00329578428035419
aF-0.006262310408321878
aF-0.004956044870218535
aF0.005161315907862392
aF-0.002874561898650419
aF-0.008764431381476416
aF0.0
aF0.006335614914283678
aF-0.005858368626444736
aF-0.0029744904842551453
aF-0.03277640572850811
aF-0.007179035941718689
aF-0.05224679027148873
aF-0.002475469125632051
aF0.0008129809072872233
aF-0.011632169208335277
aF-0.0049090365943057525
aF-0.004624254505408306
aF-0.023497345281368823
aF-0.007983732167278448
aF-0.01706476297218751
aF-0.0036133862837925868
aF-0.004589672244862209
aF-4.416310001046416e-05
aF-0.0047727573620669475
aF0.004969209322569375
aF-0.025137151453573883
aF-0.01723569009467279
aF0.0062077115364179815
aF-0.020873327010211197
aF-0.003687606251507652
aF-0.0045518836402610435
aF-0.0024456368684097423
aF-0.007357974005768989
aF-0.004209177015380034
aF-0.008837695971437062
aF0.01432826433374067
aF0.0
aF0.0
aF-0.002144417804888026
aF-0.002708221383547634
aF0.009404228345489053
aF-0.0018416596422190909
aF-0.004767112349768927
aF0.0
aF-0.010316745151202277
aF-0.004779704219773821
aF-0.026590278024897152
aF-0.010575805659223295
aF-0.008235311073521032
aF-0.017485251060984624
aF-0.003233850200276777
aF-0.01056764430723767
aF-0.004980527030304017
aF-0.00405884451812631
aF-0.004313028910585278
aF0.0
aF0.014355682927412362
aF-0.008209471748997116
aF0.005970349838742435
aF-0.028827236461251668
aF0.0
aF-0.004010807043174035
aF-0.007506139758180886
aF0.005344557815444438
aF-0.007695268163423977
aF0.0
aF-0.010645195737486407
aF-0.0022235782603258333
aF0.0009337726852655381
aF-0.006383003906242262
aF-0.004170005475415546
aF0.0013974113867495658
aF0.0
aF-0.004313549984059485
aF0.0
aF0.006433208206495367
aF-0.012941438801839154
aF-0.012913022632997094
aF-0.017554590847438874
aF-0.004687876592304575
aF-0.0049269341378925776
aF-0.009487589771458051
aF-0.003923620360214764
aF0.00507361847141049
aF-0.004014517880853942
aF0.0037115494627262538
aF0.004721452602338751
aF-0.003216557762526421
aF-0.09255509361438222
aF-0.022062120354231215
aF-0.007242050466343301
aF-0.0020820550451139666
aF-0.008307122517329665
aF-0.008938750420382599
aF-0.004827208285601526
aF-0.0029435602319384776
aF-0.012318407236204141
aF-0.5341996324704849
aF-0.2869409237086135
aF-0.0074413529397245
aF-0.03168825846723283
aF0.0
aF-0.0036133862837925868
aF0.00498703740460354
aF0.003132136517871633
aF0.0006290062231487561
aF0.005550723811198902
aF-0.020873327010211197
aF-0.007506139758180886
aF-0.009650972778768111
aF0.0019801780769628085
aF-0.0044224506625367924
aF-0.016910336697383673
aF-0.01031809368073739
aF-0.0216995569001643
aF0.0
aF-0.0041945970862468755
aF-0.004477224304137118
aF-0.014732990275652228
aF-0.057924381989577375
aF-0.020231892771057733
aF-0.0035612481117754434
aF-0.01213399516700537
aF-0.0013399912933210844
aF-0.0036995452466377266
aF-0.025435304201617562
aF0.006012535635338307
aF-0.0015723745651798318
aF-0.004668079643512964
aF-0.006220819874335038
aF-0.019364020281698043
aF-0.013626283793070685
aF0.006433208206495367
aF-0.002253679671583903
aF-0.036539016204082855
aF0.006948950505010357
aF0.010753094256509563
aF-0.004410512806801261
aF-0.007595935547284289
aF-0.0023413910874625667
aF-0.009517667197720132
aF0.0
aF0.0
aF-0.004600885161123324
aF-0.011496120604971861
aF-0.004031996209424114
aF-0.004303431323933167
aF-0.0049269341378925776
aF-0.0014125026961925007
aF0.0
aF-0.0018856108912367873
aF-0.0018246136912553306
aF-0.025457399606378852
aF-0.03183766450268496
aF0.0
aF-0.013871589349029783
aF-0.007788925950710207
aF-0.04572756480906447
aF-0.0023965302335247868
aF-0.0035535924462102905
aF-0.011176067337586413
aF0.007076665574568086
aF-0.0017518428675039775
aF-0.015122432344104764
aF-0.003270727802730845
aF-0.005157461214300939
aF-0.02308143092703975
aF-0.03288794937395913
aF-0.01110982600908504
aF-0.005662441011768974
aF-0.010258739005445227
aF-0.009577647319958056
aF-0.020842854855396175
aF0.014685431127049484
aF-0.0037697168591328844
aF0.0
aF-0.004375361694343982
aF0.0020206178459261244
aF-0.004294401413792392
aF-0.004087946501648454
aF-0.004809151763907427
aF-0.004507200698610851
aF-0.007469384764834514
aF-0.0027749482108863984
aF-0.07788793501690316
aF-0.008432625141680894
aF-0.004727395976068011
aF-0.00401961432894669
aF-0.004110842265949912
aF0.0014945567080037153
aF-0.0044126868881602345
aF-0.020417092840536735
aF-0.008017898228760655
aF0.0
aF-0.013621152151819336
aF-0.002799633744796997
aF-0.0073879948855911145
aF-0.0012353268464728798
aF-0.003096237648107455
aF0.004878768006415282
aF-0.004879778684137019
aF0.005919557362351909
aF-0.003305470933963354
aF-0.07788793501690316
aF0.006073791331892326
aF-0.0019712137470992565
aF-0.019087944714740384
aF-0.013678480693100847
aF-0.005662441011768974
aF0.0011001766371242436
aF-0.0032289336595107488
aF-0.004827208285601526
aF-0.14137679036313053
aF-0.008025704037250347
aF-0.00759321907470841
aF-0.003113904511101515
aF-0.003207344976810254
aF0.005316822518994037
aF0.0
aF-0.0031049145694200977
aF-0.008147787784705127
aF-0.0038951160000769746
aF-0.004827390984400139
aF-0.0010459573691919358
aF0.0
aF8.691265372727042e-05
aF-0.00949637514219062
aF-0.004469832163251784
aF-0.04934714526190088
aF-0.060069358324883276
aF-0.008454860397100129
aF0.0013576084554676338
aF-0.0048097044791443
aF-0.011694549160985227
aF-0.027359519822652112
aF-0.003356217045765699
aF-0.004442543248929724
aF-0.017328189159305053
aF-0.007249311120928956
aF0.014002519265605948
aF-0.013621347564677573
aF0.0
aF-0.004108412348106765
aF-0.016908618336013304
aF-0.014149995858373567
aF0.0051796181748218675
aF-0.0032725979149849783
aF-0.011637215040867777
aF0.0
aF-0.009350400854312603
aF-0.026670446046896907
aF-0.03426527315758083
aF0.0
aF0.005090135021717012
aF-0.0036237046571803502
aF-0.0171884519079995
aF0.0
aF-0.004110842265949912
aF0.0
aF-0.004687962613293672
aF-0.011560148378172973
aF0.0
aF-0.004707162999602822
aF-0.00950921234150477
aF-0.0023910861080232017
aF-0.026164665173996054
aF-0.008170447726621467
aF0.0
aF-0.018708548345856137
aF-0.016867033827606306
aF-0.0614023327217334
aF-0.028891435941215876
aF-0.0614023327217334
aF-0.014107045085642183
aF0.0
aF0.0069366637719012435
aF-0.010377218602359448
aF0.0
aF-0.005812261579044623
aF-0.003977213744035978
aF-0.0039464910083508355
aF0.003560698236030273
aF-0.008486368471504267
aF-0.003428591305971996
aF-0.0038951160000769746
aF-0.007656760905866547
aF0.0
aF-0.02880542499808201
aF-0.011871741484205282
aF-0.001249185393836567
aF-0.01031809368073739
aF-0.004625311904937427
aF-0.004857359431160629
aF0.006273368831951647
aF0.0
aF-0.008802313462611887
aF-0.016727820642069673
aF-0.030466961291174852
aF0.0023960137753754364
aF-0.013419113056297331
aF-0.0030068067260798203
aF0.009404228345489053
aF-0.004622435089006392
aF0.029667573829725465
aF-0.003486505935949131
aF-0.0032973489794058553
aF0.0039220252774199715
aF0.005798840320116718
aF-0.004542933685787121
aF-0.015114660068117845
aF0.006818859877227485
aF-0.001834674695156783
aF0.001295269635236707
aF-0.008741821179581527
aF-0.004142323515162612
aF-0.0006584265242944153
aF-0.010586757760149822
aF-0.004571116918583619
aF-0.015110388656335823
aF-0.01203523558614967
aF-0.0029599300110014796
aF-0.0045022794493338415
aF0.0
aF-0.004313911220796101
aF-0.0012353268464728798
aF0.007076665574568086
aF-0.003523429934234525
aF0.005371579494746382
aF-0.0036237046571803502
aF-0.004689902925950371
aF-0.02456748389732028
aF-0.019434672169122404
aF-0.007955283394532239
aF-0.013952474349747794
aF-0.004849404604630476
aF-0.0036678331302919527
aF-0.008047216056845864
aF0.006012535635338307
aF-0.0019638935524131855
aF-0.013949140210439371
aF-0.00813823749721258
aF0.01111748357832738
aF0.005161315907862392
aF0.009708701174810267
aF-0.003124981555102664
aF-0.16873004114029055
aF-0.012165223395285281
aF-0.003683175499675014
aF-0.007816360054928615
aF0.0
aF-0.03752973231341479
aF0.010453871298277191
aF0.0
aF-0.006271007663048172
aF-0.0155835235717327
aF-0.011710925105239599
aF-0.010702276782191196
aF-0.019434672169122404
aF0.0
aF0.005294878411762758
aF-0.03294154686266601
aF-0.002515342993889374
aF0.0
aF-0.014450445062426294
aF-0.003973632957182189
aF-0.0011977010813065151
aF-0.004934164566867816
aF-0.009421970415990678
aF0.014426558993674636
aF-0.017598341437918334
aF-0.011671428780484008
aF-0.004822450864032216
aF-0.010913599452596588
aF-0.027461645875503763
aF0.0014572409995454267
aF-0.0024815036466128457
aF-0.3552699893611245
aF0.0063869952887548286
aF-0.002866640702095548
aF0.0
aF-0.004459777019260118
aF-0.012133107920749377
aF-0.013776491475996171
aF-0.012241595721001357
aF0.008635449805762667
aF-0.011671140820463697
aF-0.017108901243953888
aF0.001366485372978051
aF-0.011150088084908891
aF-0.004170005475415546
aF-0.017323867364444953
aF-0.041131984068016374
aF-0.012655855042514704
aF-0.004083335954359248
aF-0.008561365193005136
aF-0.004139950002227357
aF-0.013790862459722636
aF0.0
aF0.0
aF-0.001396402375994029
aF-0.004652196720287748
aF-0.020007592467341052
aF-0.053527021773532475
aF-0.006652842320586457
aF0.005511119671421336
aF-0.012802684707722674
aF0.01149886559287652
aF0.0018252703408491834
aF0.0
aF-0.0045717978932363415
aF-0.00398096479242249
aF-0.0032738217542017567
aF0.005130013387612416
aF-0.003788935772220557
aF-0.002310044493220277
aF-0.004386011070895428
aF-0.004014517880853942
aF0.011200581799246618
aF0.0
aF-0.013723179598383428
aF0.0014556037017650564
aF0.0
aF-0.0032289336595107488
aF-0.00216192358111407
aF0.0014510081842568365
aF-0.0030842034338762776
aF-0.009421970415990678
aF-0.004637676518981128
aF0.005743025793509759
aF0.005413632896987692
aF-0.02772607627105241
aF-0.009723296555604999
aF-0.023259325487298782
aF-0.026934712329972636
aF-0.02286343682128316
aF-0.01647536536661448
aF0.0
aF-0.0004795347102661291
aF-0.0048023015573966255
aF-0.0050008252539174075
aF0.0
aF-0.05151755778198072
aF-0.02149486330667281
aF-0.0069562537214048654
aF-0.0038550192139949918
aF-0.004507200698610851
aF-0.009503434041824391
aF0.0
aF-0.007984153928779008
aF-0.00982723803419833
aF0.0
aF-0.004582705183225314
aF-0.015630137952811082
aF-0.009517667197720132
aF0.0
aF-0.00432016687536263
aF-0.0007088544077045343
aF-0.008055723743652739
aF0.012935851661624503
aF-0.0036995452466377266
aF-0.004761017300634352
aF-0.004665827356451711
aF-0.004731771624668415
aF0.0
aF0.0
aF0.0
aF-0.22160206744624564
aF0.0004794385520401319
aF-0.0032725979149849783
aF-0.0043593337699336186
aF-0.007662409198261007
aF-0.0029492396521228234
aF0.01615915085232881
aF-0.009696259941025652
aF-0.0032738217542017567
aF-0.0035256776577859174
aF-0.01047413356620495
aF-0.023185603255721596
aF0.0
aF0.0080894572685178
aF-0.0034996496086243233
aF-0.002631014570470565
aF-0.004725758082001001
aF-0.008689458613449285
aF-0.004194135830638076
aF-0.004827208285601526
aF-0.009927089385653492
aF-0.0027440452790997273
aF-0.0019566847424455245
aF-0.008209103961150124
aF-0.004472352511804715
aF-0.053416949064355505
aF0.0016502816745812103
aF0.014009701788704544
aF0.0057070952304824904
aF0.0021123806049387983
aF-0.01208188706461392
aF-0.05244418708854997
aF-0.10106739028149582
aF-0.0006732282080462125
aF-0.004957644386040241
aF-0.004957644386040241
aF-0.001759863503175414
aF0.0014255527182503525
aF-0.004507200698610851
aF-0.004571116918583619
aF-0.06689961662796189
aF0.0
aF-0.0044224506625367924
aF-0.008712500409964439
aF0.0
aF-0.0036399684404254313
aF-0.004494891524743068
aF-0.013503180511332738
aF-0.004996002120151994
aF-0.008019013793441531
aF-0.0067607828626642065
aF-0.008242487426368855
aF-0.0073007428577483826
aF0.0011001766371242436
aF0.0
aF0.0015109409669008022
aF-0.002991927790006184
aF-0.04583710218186464
aF-0.022377425684062455
aF-0.004850756252917611
aF-0.006367512978912433
aF-0.001935784449655182
aF-0.00257540099424364
aF-0.025232116821087506
aF-0.004761017300634352
aF0.0
aF-0.007490989093358674
aF-0.0036498516271240887
aF-0.016262753276858423
aF-0.0020432801340605237
aF-0.013467448806518716
aF0.0057911459720329855
aF-0.01031809368073739
aF-0.0075214889347314465
aF0.007375718355782788
aF-0.028886059171753804
aF-0.008625639944057982
aF-0.004644522769654754
aF0.0
aF-0.0033863735539861827
aF-0.0006961625826905063
aF0.0012489978460256167
aF-0.0029857475934866907
aF0.005832224768703527
aF-0.003871568899310364
aF-0.00425639201974353
aF-0.006729061767529099
aF-0.0044870455027946335
aF-0.004577329794362962
aF-0.03197183761343066
aF-0.0015713935466396935
aF0.0
aF-0.031708160537579064
aF-0.027439490837787704
aF-0.01880937472492235
aF-0.06344061624597892
aF-0.011619148326337427
aF-0.014150277354170526
aF-0.0034534820619547785
aF0.013244769330093092
aF-0.004890405304935376
aF-0.004779704219773821
aF-0.0025619521982918657
aF-0.01705280124583766
aF-0.011330316163216031
aF-0.004016596149695611
aF-0.007575872261475824
aF-0.012837095520420543
aF-0.0035852380066241523
aF-0.01846331547996428
aF0.0
aF-0.006451068338251156
aF0.0014945567080037153
aF0.0
aF0.0
aF-0.012701753522048342
aF-0.0024930480798524965
aF0.0004523839341665395
aF-0.016646366093724583
aF-0.006473405371477161
aF-0.0038682161308438313
aF0.0006808506002870876
aF-0.004295808020947375
aF0.0
aF-0.03168825846723283
aF-0.0024815036466128457
aF-0.0375516357472587
aF-0.07241693108178744
aF0.0
aF0.0
aF0.0
aF-0.0034918693172703826
aF-0.0048546012716149094
aF-0.04969524469886909
aF-0.00613331561861344
aF-0.004831783840949322
aF-0.0048291318491118975
aF-0.007435968454036851
aF-0.004957644386040241
aF-0.01187797810829293
aF-0.04275654911978597
aF-0.00915842706303008
aF-0.008914795302698819
aF0.005444614941779129
aF-0.004294401413792392
aF-0.004209177015380034
aF-0.004410512806801261
aF-0.10573601894713275
aF-0.0038784553820885425
aF-0.004830890334942563
aF-0.03431987697584353
aF0.0
aF-0.008741821179581527
aF-0.004507200698610851
aF-0.017108901243953888
aF0.0057070952304824904
aF-0.0045018689984137735
aF-0.004461379828364478
aF-0.007816360054928615
aF-0.014014158219433113
aF0.005094200410925528
aF0.0
aF0.009404228345489053
aF0.0017485934014470701
aF-0.004140279758046907
aF-0.008025704037250347
aF0.0
aF-0.009256347225701022
aF-0.0023321558188377865
aF-0.025505799090649532
aF-0.0002443035812020602
aF-0.01772049339122525
aF-0.07662595095996058
aF-0.0038209856858956886
aF-0.020553184954965463
aF-0.0024815036466128457
aF0.005941011672975108
aF-0.009160022100460727
aF-0.0032289336595107488
aF-0.0044339987536994325
aF-0.004625311904937427
aF-0.02131423814473406
aF-0.007117150103683013
aF-0.00952125881835704
aF-0.019757069074377482
aF-0.005512135047683055
aF-0.12962171613080872
aF-0.016671022824615418
aF-0.0039755683186456356
aF-0.008961537772037263
aF-0.004555824548452225
aF-0.009223863338851473
aF0.0013744887385210786
aF-0.011895235175484848
aF0.0024322877636839208
aF0.007779836154320142
aF0.0023912130701672914
aF0.006098896066267642
aF-0.00877624295537709
aF-0.007046531402313556
aF-0.0033514092332937156
aF-0.004795628181258365
aF-0.036314467857896916
aF-0.004330797432142544
aF-0.00396363504060313
aF0.0007168091466657001
aF-0.01099462714519826
aF0.000986937343989725
aF-0.004146141296076795
aF-0.014307122504979373
aF-0.004808134698864542
aF-0.02481879070487994
aF-0.005043248318660676
aF-0.0031851143298835187
aF-0.0605212706204233
aF0.0
aF-0.013516228974092676
aF-0.004867400902908855
aF-0.004521081762411803
aF-0.012861366951600325
aF-0.0008493607721868166
aF-0.0023594957552157134
aF-0.002656814812678889
aF-0.014450445062426294
aF0.001295269635236707
aF-0.004315550635487914
aF-0.004894079495017818
aF0.0013945260944205643
aF-0.002804335649862708
aF-0.000748653566932574
aF-0.03403199808131521
aF0.005798840320116718
aF-0.01222354944285438
aF-0.004414981989355661
aF-0.003170322256269354
aF0.002258105276019996
aF0.000340758866779325
aF-0.004429296909191307
aF0.007006182798691422
aF0.006727234157584768
aF0.0037276875772473896
aF-0.0040824971981100735
aF-0.023322658512252955
aF-0.0049936893959359584
aF-0.003943556997751544
aF-0.0029770948108768427
aF-0.004856463111865501
aF0.0
aF-0.10234810921518608
aF-0.002621216993956646
aF0.024084070618089433
aF-0.004615842080323249
aF-0.03335137822880329
aF-0.0016931190370451585
aF-0.003267238473994825
aF-0.007469384764834514
aF-0.012270989363832837
aF-0.0044126868881602345
aF-0.010152214512345768
aF-0.00173604856552693
aF-0.03579522321336282
aF0.005
aF-0.004911223404570251
aF-0.00823552249947737
aF-0.004911223404570251
aF-0.0029069197621147684
aF0.0030879732630938956
aF-0.015570859817244336
aF-0.03065645304027639
aF-0.007242050466343301
aF-0.007921779470992547
aF0.0
aF-0.02063135668657193
aF-0.00289880581698636
aF-0.023018180253162747
aF-0.004880714108663462
aF-0.002271699801633941
aF-0.013678480693100847
aF-0.0043670694403580195
aF-0.004003724026187935
aF-0.004890405304935376
aF-0.004714020170197652
aF-0.002908082342723181
aF-0.004867400902908855
aF0.004553914731854996
aF0.0028305247098202617
aF0.0050680772314464
aF-0.028821974373888393
aF-0.013147686736434388
aF-0.007572714538698032
aF-0.012418724167387422
aF-0.010913599452596588
aF-0.004507200698610851
aF0.0
aF-0.006216769680943019
aF-0.011637215040867777
aF-0.02065890446837178
aF-0.0033727738672334555
aF-0.009766891456680707
aF-0.0038002069789502707
aF-0.012291022579693243
aF0.0
aF-0.013475215371420197
aF-0.004800542677181404
aF-0.0017455388176571118
aF-0.007009923514393548
aF-0.0033846988250165262
aF-0.0037697168591328844
aF-0.001599516242641859
aF0.0
aF-0.006866833029110895
aF0.0007010510474271486
aF-0.008420716558770979
aF-0.022521929344971565
aF-0.007030661406815535
aF-0.0038418008080963774
aF-0.017144673795291707
aF-0.004689902925950371
aF-0.00434517981757827
aF-0.050124051674444337
aF0.0
aF-0.010680558044230268
aF0.0
aF-0.00969616204799444
aF-0.0020820550451139666
aF-0.004108412348106765
aF-0.0033318827717197137
aF-0.009373823465224052
aF-0.012318407236204141
aF0.003805013403938979
aF-0.00432016687536263
aF-0.00488574946645119
aF-0.0029492396521228234
aF-0.004138962144415807
aF-0.000661337635844873
aF0.00596265474419762
aF-0.0075843315231184805
aF0.0
aF0.009876911566377248
aF0.012231189905130117
aF-0.03666447519307741
aF-0.004288486385706898
aF0.01699810759790651
aF-0.007529335241187922
aF0.0
aF-0.008886651291655282
aF-0.004259048219860546
aF-0.004406145143307486
aF-0.020292110012905623
aF0.0021642785616750346
aF0.0011674716828453365
aF-0.14137679036313053
aF0.0
aF-0.06893094381967077
aF-0.012593660999582364
aF0.006335614914283678
aF-0.026670446046896907
aF-0.10431045701486044
aF-0.03419337021392463
aF-0.004694513557323847
aF-0.003700436691253344
aF-0.02929789346210504
aF-0.004577329794362962
aF0.0
aF-0.009100436557828245
aF0.0
aF-0.008401719240023801
aF0.0
aF-0.004973376167185996
aF-0.025375394800994884
aF0.0024068861865678857
aF-0.004313028910585278
aF-0.005379638959008576
aF0.012710550578619174
aF0.0027266463942476676
aF-0.004327016508566007
aF-0.0035384369711951207
aF-0.005505438821431868
aF0.0050573921715181035
aF-0.01708880923863498
aF-0.0017847808178067881
aF-0.09761725921642139
aF-0.004619159318996451
aF-0.007346589812699153
aF-0.004087946501648454
aF-0.003410014623039563
aF-0.0030177097680800296
aF0.0007124687221146779
aF-0.00905742116179614
aF-0.006218746931311809
aF-0.020397962706174614
aF-0.003959676057885321
aF0.006696515198368457
aF0.0036519900862820327
aF0.0
aF-0.0044870455027946335
aF-0.012149401574477475
aF-0.004957644386040241
aF-0.022018297683270415
aF-0.007321769763860608
aF0.0
aF0.005664655776486693
aF0.0034617988003120773
aF0.0
aF-0.006946888190050826
aF-0.004300034784881407
aF-0.01725294020828908
aF0.0015479729600352734
aF0.0019268853063299602
aF-0.024401520751926004
aF-0.014247108045204564
aF-0.004472352511804715
aF-0.014034919274205608
aF-0.004302432468037506
aF-0.0010909802451955202
aF0.006537394727268432
aF0.005413632896987692
aF-0.0023618333499662554
aF-0.02281185977823347
aF-0.025443704839541555
aF-0.004711119316411006
aF-0.004761017300634352
aF0.0
aF-0.008741821179581527
aF0.002759341895590771
aF-0.004644108615494483
aF0.0027199783406276837
aF0.0
aF0.0009388437794597207
aF-0.00231013455278489
aF-0.0023910861080232017
aF0.006038165561096553
aF0.0
aF0.0
aF-0.003475695446184341
aF0.006147883719525479
aF-0.004822450864032216
aF-0.015675907435418433
aF0.005450664055997315
aF-0.03919430595113315
aF-0.04743016924525409
aF-0.008170447726621467
aF0.0
aF-0.005800010994855113
aF0.0
aF-0.003199169640472752
aF-0.0024163530287418
aF-0.012575667411689813
aF-0.000982416432066061
aF-0.004217335388759786
aF-0.004819570268758789
aF-0.004259048219860546
aF0.009540253965459074
aF-0.008764907787025412
aF-0.004632771099360799
aF-0.004628545094333872
aF-0.004091293486131852
aF0.001795797104411577
aF-0.015170705657654836
aF-0.013621152151819336
aF0.0
aF-0.011408551052470389
aF-0.009200011090219673
aF0.0
aF-4.416310001046416e-05
aF0.0022684650048567677
aF-0.010818216648629538
aF-0.0045577612837474375
aF-0.021476999866099918
aF-0.030466961291174852
aF-0.004911223404570251
aF0.006073791331892326
aF-0.013147686736434388
aF-0.006674577504415757
aF0.005770339296502035
aF-0.004996002120151994
aF-0.003207344976810254
aF0.009404228345489053
aF-0.004689902925950371
aF0.0
aF0.018331756429990735
aF0.0
aF-0.008828375495684805
aF-0.008833641013518181
aF-0.006012039191711507
aF-0.004957644386040241
aF-0.0033623994227242626
aF-0.004831783840949322
aF0.0
aF0.0004523839341665395
aF-0.005430455683461312
aF-0.004240428259183388
aF0.0009733171256117541
aF-0.00339068646527093
aF0.0
aF-0.08300685896706934
aF0.0
aF-0.003113904511101515
aF-0.003973632957182189
aF-0.00488887636947114
aF-0.007157398313153348
aF-0.004456004621742216
aF0.0
aF-0.020222224249341024
aF-0.004498511412610982
aF-0.0023520778009853624
aF-0.011879131102537854
aF-0.003107923676150527
aF-0.016262753276858423
aF-0.001754887012957891
aF0.00631028444610947
aF-0.023693817219786098
aF0.0050944351174305865
aF0.000894111805034045
aF-0.016328497649720844
aF-0.004644522769654754
aF-0.019070693829971314
aF0.013286701499570123
aF0.007218760445542137
aF-0.007103565257508979
aF0.0
aF0.0030581281115335092
aF0.009077083072994789
aF-0.006946800418375444
aF-0.020531194674535222
aF-0.003113904511101515
aF-0.00950921234150477
aF-0.0033125659378159117
aF-0.020972446392511404
aF-0.0036221250432579132
aF0.0
aF-0.009363044505987973
aF-0.011576246797651193
aF-0.004386011070895428
aF-0.004990051841395226
aF0.0
aF-0.026630223201339197
aF0.0
aF-0.004610775012772409
aF-0.004989650451032942
aF-0.0032289336595107488
aF-0.004579520675354485
aF-0.02764800984901106
aF0.007231578180373609
aF0.009782681643630916
aF0.0
aF-0.004996002120151994
aF-0.02280779632127723
aF0.007474067671362012
aF-0.0047298668097316915
aF0.006501916070322056
aF-0.0025221765737210183
aF-0.00451753925944106
aF-0.0031361176929357443
aF-0.011902337852563675
aF0.0
aF0.017481796331951637
aF-0.00016355478672119904
aF0.0038471169257482457
aF-0.010221302522115278
aF-0.020531001745652463
aF0.0032783104341410976
aF-0.0048023015573966255
aF-0.003129903548308897
aF-0.004572534636182047
aF-0.03534628264402736
aF-0.03621925239652783
aF-0.003468404039503989
aF-0.00289880581698636
aF-0.007009658449115466
aF-0.008432625141680894
aF0.0029221155079258952
aF-0.23609552688117538
aF-0.18979553685707978
aF-0.014983705692102561
aF-0.09639561980631077
aF0.005492639650650997
aF-0.0027157065194361846
aF-0.0044091701395242685
aF0.006827804541737743
aF-0.04276397202298134
aF-0.004913413917055059
aF-0.002271699801633941
aF-0.012157964550614303
aF-0.004162824748720915
aF-0.004087946501648454
aF-0.008089069309168731
aF-0.011948516118605937
aF-0.004827390984400139
aF0.004080653167999038
aF-0.00909893884296519
aF-0.00759211732401288
aF0.005457150684888666
aF0.0007495148325439736
aF0.0
aF0.006727234157584768
aF-0.0048097044791443
aF-0.025110808839923258
aF0.0
aF-0.01769498149606624
aF-0.027199467086990847
aF-0.2284362702440286
aF-0.009217710161300418
aF-0.0042516506346544644
aF-0.00837061094475507
aF-0.016226135852730007
aF-0.003932154925735826
aF-0.007849799349586701
aF0.0
aF-0.003939658261645842
aF-0.028891435941215876
aF0.0
aF0.001513192239387594
aF-0.0020760673246846117
aF-0.0017793937092648166
aF0.0
aF-0.005893526764891785
aF-0.007819563487845387
aF-0.008017898228760655
aF-0.0014594255935977477
aF-0.003621550503248723
aF-0.0047382459673646835
aF-0.008727085817920172
aF0.005628242626113991
aF0.0
aF-0.003865988051143314
aF-0.016358738667648837
aF-0.004191535860844502
aF-0.004506798687006179
aF0.005626451056535007
aF-0.008802313462611887
aF-0.014250452527698434
aF0.005107517455015773
aF-0.02455849335880117
aF-0.0032105336433235483
aF-0.0025021009068128533
aF0.007153772379560004
aF0.0009268963312056852
aF0.0
aF0.0
aF-0.0033125659378159117
aF-0.002357773183758491
aF-0.004973376167185996
aF0.0
aF-0.01599483975185028
aF-0.005446354360225168
aF-0.0044582041878922715
aF0.006305311090932595
aF-0.0035852380066241523
aF-0.0030068067260798203
aF0.007006182798691422
aF-0.0034223556713405957
aF0.0008019582740084823
aF-0.03198256828036814
aF0.001328120709952728
aF-0.028656752978400785
aF0.004117276272726615
aF-0.014375390149617282
aF0.005280909293596241
aF-0.22341489205817275
aF0.0
aF-0.00966225841454526
aF-0.001151444371782124
aF-0.013026856670156456
aF0.0
aF-0.004539683297200876
aF0.0012221207235206923
aF-0.057221488693710666
aF0.0054181800159364525
aF0.0
aF-0.002497363314160309
aF-0.004558754813587113
aF-0.011710925105239599
aF-0.013621347564677573
aF-0.004335002833745375
aF-0.01501097668538973
aF-0.0018246136912553306
aF-0.004772918151482392
aF-0.0039755683186456356
aF0.005104570606698151
aF-0.02331013376119533
aF-0.040769366397561166
aF-0.004800542677181404
aF-0.009650972778768111
aF-0.0064825415458612395
aF-0.03198256828036814
aF0.0
aF-0.009228939284881232
aF0.014426558993674636
aF-0.004256983405254172
aF-0.00464094012951539
aF0.004271870308579004
aF-0.015252839113959502
aF0.005584143761221043
aF0.0
aF-0.0039309296319987586
aF0.0037115494627262538
aF0.002221665704956787
aF-0.0006791328798645335
aF0.0
aF-0.014093894733468256
aF-0.012814918177512964
aF0.0
aF-0.015733540676522953
aF-0.016106058645290453
aF0.0
aF0.0
aF-0.008415593533097971
aF-0.06689961662796189
aF0.0
aF-0.011045649543452761
aF-0.0023910861080232017
aF-0.004313911220796101
aF-0.03752973231341479
aF0.007006182798691422
aF-0.01442951741129405
aF-0.006126219233566242
aF-0.008432710615410741
aF-0.013946279933515944
aF-0.004466196728330791
aF-0.020184281215263406
aF0.0071496616517948254
aF0.006335614914283678
aF0.0
aF-0.006220428566773286
aF-0.012753809525247139
aF0.005866683256383457
aF-0.004996002120151994
aF0.0
aF-0.019852274600775325
aF-0.029307603286566553
aF-0.0027749482108863984
aF-0.009503434041824391
aF-0.0033125659378159117
aF-0.0223578467606832
aF-0.014242533746522602
aF-0.016728245020117823
aF-0.008765898368729385
aF-0.003207344976810254
aF0.009540253965459074
aF-0.004691197676671533
aF-0.0047382459673646835
aF-0.01170838706134333
aF-0.020231892771057733
aF-0.010490990808679119
aF0.0011146912524988492
aF-0.009551545805341993
aF-0.0033125659378159117
aF-0.03182401056954929
aF-0.0341436205661907
aF-0.007076937337522777
aF-0.004676693015974167
aF0.0
aF0.00443685065038254
aF-0.0019601598772900743
aF-0.022322852000403723
aF-0.007921779470992547
aF-0.1823536682300361
aF-0.00893926901211982
aF-0.03426527315758083
aF-0.010680558044230268
aF-0.023104515241169146
aF-0.05460397379285138
aF-0.0033494769815224598
aF-0.0012655602022402651
aF-0.1233735727482817
aF-0.00849808885524304
aF0.002385923510959569
aF-0.009577647319958056
aF-0.0008737104534201983
aF-0.008020367313010101
aF-0.013871589349029783
aF0.007375718355782788
aF-0.016965558032163205
aF-0.011830123221618978
aF-0.02562900549744511
aF-0.028827236461251668
aF0.0
aF-0.012935164877696746
aF0.0020155723282631694
aF-0.0017467783080836433
aF0.009404228345489053
aF0.0003748590975568263
aF-0.0019147691045860705
aF-0.004689902925950371
aF-0.008808751764522203
aF-0.020930401510282463
aF-0.017101979522283123
aF-0.008219824968386875
aF0.005371579494746382
aF-0.009754305646747322
aF0.003832075451334084
aF0.005966827545071655
aF-0.023215613465382083
aF-0.02108140883251089
aF0.005409133674877015
aF-0.009294794651697011
aF-0.00949637514219062
aF-0.01589840144572056
aF0.0
aF0.0
aF0.00010075948605942379
aF0.006752138853167783
aF-0.009694393231021644
aF0.005463960465077971
aF-0.007002615980187123
aF-0.004856463111865501
aF-0.00917262284100694
aF-0.004691197676671533
aF-0.006997360426257263
aF-0.003189171670225125
aF-0.0033727738672334555
aF-0.007464979127353402
aF-0.004736041322711455
aF0.02200118412760638
aF0.008655940999956594
aF-0.006620949067506835
aF-0.016074850805031016
aF-0.004635598175438008
aF-0.010586757760149822
aF-0.008608594513671915
aF-0.007935723098744567
aF-0.006794586789820221
aF0.0
aF-0.0029857475934866907
aF0.007076665574568086
aF0.003052602228178892
aF-0.019200942772577806
aF-0.0029935720900607678
aF-0.010414791373141202
aF0.006818859877227485
aF-0.004442543248929724
aF-0.16744874432714157
aF0.002814981572688297
aF-0.004789374533790772
aF-0.003086049304451411
aF-0.04551474077020948
aF-0.02951868857844165
aF-0.004665827356451711
aF-0.004457123016368167
aF-0.008689445624213065
aF-0.07486619884781552
aF-0.03153521486946691
aF-0.0023069757580409245
aF-0.0031123911296469108
aF0.0
aF-0.010417189153214485
aF-0.01056838330843186
aF-0.001935206360066996
aF-0.0034996496086243233
aF-0.00398096479242249
aF-0.019492375061579366
aF0.006448993360232186
aF-0.01337202864123123
aF-0.015814398285788654
aF-0.01710841704643116
aF-0.00347388519271056
aF-0.003898665332724716
aF-0.004819570268758789
aF0.01818560239763963
aF0.0
aF-0.007462500038517488
aF0.0
aF-0.009758403638354398
aF-0.009758403638354398
aF-0.013112943660041895
aF-0.01191069951567304
aF0.005584143761221043
aF0.0
aF-0.005195799724531178
aF-0.004292739551349255
aF-0.003932154925735826
aF-0.004819570268758789
aF-0.016303440541020252
aF0.002661493847087239
aF0.008725306325043692
aF-0.004571116918583619
aF0.0025814393977552407
aF-0.0035710780869399775
aF-0.0037268111541705535
aF-0.01773903385773717
aF-0.004014517880853942
aF0.0
aF0.001109946040474694
aF-0.012562012437269537
aF-0.004414036260625927
aF0.008199952699951994
aF-0.0048097044791443
aF-0.01740450811973232
aF-0.004270777064502373
aF-0.004667654065004208
aF0.006532080822949298
aF0.0
aF-0.0446431673913146
aF-0.0027078126929863475
aF-0.013591781713780173
aF-0.008307122517329665
aF-0.004636820523191487
aF0.005237258672381434
aF-0.006240075686982661
aF-0.008379284673165592
aF-0.013374436506023431
aF-0.0034534820619547785
aF0.0
aF0.007328234802263871
aF0.0
aF0.0
aF0.006646951691980011
aF-0.0031566888714642753
aF0.0
aF-0.00883047333152687
aF-0.004867400902908855
aF0.0
aF0.007063058535429713
aF0.0
aF-0.0050301677320260755
aF-0.0038550192139949918
aF-0.004934164566867816
aF-0.004691197676671533
aF-0.014091945765877315
aF-0.011023686961265166
aF-0.004894079495017818
aF0.0
aF-0.02830190235916511
aF-0.0024429432148759113
aF-0.017042533101346496
aF-0.003892927298682243
aF0.007328234802263871
aF0.018515038812550958
aF-0.024776225679474743
aF-0.016908618336013304
aF-0.004412228821225974
aF-0.003410014623039563
aF-0.002925534683736551
aF-0.008692094282096068
aF-0.008603809798571808
aF-0.003932154925735826
aF-0.004285148374678461
aF-0.007371596260090523
aF-0.023146012603785734
aF0.00595065071250743
aF0.007328234802263871
aF-0.004770302595139443
aF-0.004691197676671533
aF-0.004994113334067764
aF0.0034219744179978242
aF0.005584143761221043
aF0.0014945567080037153
aF-0.0033727738672334555
aF0.0
aF-0.004253265612253214
aF-0.00440452535266844
aF-0.004215680421050697
aF0.006448993360232186
aF0.0
aF-0.008003336461868609
aF-0.00877428054005848
aF-0.011628760387973593
aF-0.011534378837426949
aF-0.012624980426188408
aF0.005090135021717012
aF-0.0026590427830793894
aF-0.00433987520209217
aF-0.004849404604630476
aF-0.016727820642069673
aF-0.004361861549166558
aF-0.004828299583962847
aF-0.007737996996205021
aF-0.01973302138286636
aF0.006147883719525479
aF-0.0032289336595107488
aF0.006610292712596617
aF-0.003932154925735826
aF0.012926751315604421
aF-0.0043670694403580195
aF0.0014572409995454267
aF-0.0035535924462102905
aF-0.004328675041546415
aF-0.01244529311616703
aF-0.004972272364912216
aF-0.018500666700417757
aF-0.004377859817297217
aF-0.0028360129682716857
aF0.005294878411762758
aF-0.00695666202293917
aF0.006012535635338307
aF-0.007788035377977408
aF-0.012705889774766617
aF-0.0034534820619547785
aF-0.004014517880853942
aF-0.0027157065194361846
aF0.0
aF-0.03853236871738212
aF-0.004009422781441848
aF0.005316822518994037
aF0.004668040984447792
aF0.0051796181748218675
aF0.0
aF0.0
aF-0.0008873440242191241
aF-0.004964757640886648
aF-0.004169387278548146
aF-0.0035813121181033332
aF-0.005979300754640763
aF-0.03644199413054374
aF-0.003234854641130565
aF-0.0150658903752077
aF-0.013638485824505225
aF-0.11544012164841946
aF-0.0019712137470992565
aF-0.00440452535266844
aF0.0014945567080037153
aF-0.004793374252651133
aF-0.013841225628043134
aF-0.008129163622670039
aF-0.0048097044791443
aF-0.004253265612253214
aF-0.004014517880853942
aF-0.004691197676671533
aF-0.00979049906704344
aF-0.006791364848651591
aF-0.03943953424229748
aF0.001642858599985893
aF-0.004906670981296234
aF-0.004324677579002938
aF-0.004964757640886648
aF-0.003932154925735826
aF0.0024068086851174145
aF-0.00396436588903413
aF-0.007387819851698614
aF-0.013074546654562442
aF-0.004840444707434095
aF-0.0029770948108768427
aF-0.004699225292940206
aF0.0017459291555185661
aF0.005788716098601023
aF0.0
aF-0.026566969119555573
aF-0.018959084325201138
aF0.0
aF-0.0071396509981773255
aF-0.02185529037041509
aF-0.004903339841377636
aF0.0
aF-0.011686331807786545
aF-0.007786832126591923
aF-0.0709645529736302
aF0.0047990132782465
aF-0.05686408839386178
aF0.003666859434693979
aF-0.11151386366676244
aF-0.004587609676056125
aF0.006041896683336595
aF-0.005757965531866251
aF-0.028835046014303048
aF-0.004796147492214246
aF0.006232693470655731
aF0.0
aF-0.0937050846878405
aF-0.004137500116587915
aF0.002468421175222548
aF-0.007719848033819324
aF0.005393756776956356
aF0.010329288059753182
aF-0.08748577265003497
aF-0.02749048029616193
aF-0.015918362228540157
aF-0.04214668904186369
aF0.005652705361337198
aF-0.14575366662523787
aF-0.003598600175480273
aF-0.0043007377325691145
aF-0.008270725559658236
aF-0.0026242514981380783
aF-0.002849873844201446
aF-0.007186991699274412
aF0.0026077604221872988
aF-0.003940420833524766
aF-0.004536755777680133
aF-0.02302000111376036
aF-0.0018849673308746146
aF-0.00848515003757612
aF0.00032166164567075557
aF-0.06871515333240744
aF0.014321349806247882
aF0.007061785101904249
aF9.053624423459783e-05
aF-0.004685719169579398
aF-0.004536755777680133
aF-0.0020137060478054728
aF-0.0029747964203822082
aF-0.022787771463754172
aF-0.013319991818069777
aF-0.02492068076696558
aF-0.00711644700745826
aF0.006124280869248919
aF0.0
aF0.017368029785339585
aF0.007124494752734866
aF0.005427685204987785
aF-0.0670846934840302
aF0.005324366774517042
aF-0.021586346727109705
aF-0.057141153879163714
aF-0.0035738531501225807
aF-0.0070352517325089365
aF-0.0030482227232545124
aF-0.014594140661791984
aF-0.01949515766556261
aF-0.000657611891805872
aF-0.0001287647174788043
aF0.0
aF0.008461012627626094
aF-0.0005294746328616455
aF-0.021390691161415565
aF-0.0008693029668655335
aF-0.00026020674090650306
aF-0.012122284098819613
aF-0.003339810449510965
aF-0.007207939385476524
aF-0.03795895281898646
aF-0.005721577601586504
aF0.005798840320116718
aF0.007899576159470005
aF-0.00315993863153688
aF0.0047246038179346635
aF-0.01673344596169536
aF-0.08413497243732355
aF-0.04991654542123798
aF0.007028801634635729
aF0.0
aF-0.031068662495290347
aF-0.01315323693029351
aF-0.009509018191280512
aF0.0036585758764918035
aF0.0018926299830021457
aF-0.004096912878484962
aF-0.000549404604188949
aF0.019997090674583815
aF-0.004523089398662956
aF0.008055118666535304
aF-0.024320463686290743
aF-0.015639802972453654
aF-0.003861579849255579
aF-0.006668762870515407
aF-0.03968274248873242
aF-0.0018306579695856215
aF-0.01874556163256295
aF0.0003209852145499839
aF-0.007134316769548766
aF-0.001541207011893632
aF-0.0001552028428801768
aF-0.002411987263204784
aF-0.001410247315813783
aF-0.0015690336304818012
aF0.003476215776940431
aF-0.0017467783080836433
aF0.0
aF0.006446879124322784
aF0.008564235871565708
aF-0.0018318814452017522
aF-0.0023557957137640665
aF-0.00344387796416953
aF-0.011854380987226288
aF-0.002982211977508754
aF-0.0958912726315755
aF0.012416627380500039
aF0.0005521923717157082
aF0.011766797992438925
aF-0.008151244748297889
aF-0.01279578307241874
aF0.0011770777677381045
aF-0.016082899865824545
aF-0.0027447539588909926
aF-0.003222601925079005
aF-0.0017270114441994403
aF-0.0019427868109163798
aF0.0
aF-0.00173604856552693
aF-0.001373633805316897
aF0.005266944910896838
aF-0.00385588694982059
aF0.0
aF-0.001638737454258621
aF-0.0264439327661787
aF-0.026441419368985686
aF-0.0019026709757483922
aF-0.008640812353896089
aF-0.008952117029333871
aF-0.004139950002227357
aF0.0
aF-0.014931555962922345
aF-0.014440169850589754
aF0.004903977186001236
aF0.0058873054034644995
aF-0.016426772515247788
aF0.007751385197768519
aF0.0037956243145314235
aF0.0054328805834089
aF0.00019492614279677397
aF0.0026315013643563962
aF-0.01693448181612176
aF-0.0023594957552157134
aF-0.0162448362200585
aF-0.005580203567375183
aF-0.006989596059017637
aF-0.002818786237110372
aF-0.009408776154711087
aF-0.004543966289003398
aF-0.006402650511687047
aF-0.029127739093281448
aF-0.05746453630560764
aF-0.004721278290994817
aF-0.005078945951048219
aF-0.0006454138737800397
aF0.016455797327537762
aF-0.031181534354519536
aF-0.005223886595858686
aF-0.0036678331302919527
aF-0.025672437281251268
aF-0.0033269801144681192
aF-0.00226129271658992
aF-0.0037947442174140976
aF-0.06219126449001836
aF-0.004370114777255561
aF-0.004745209676253218
aF-0.0035710780869399775
aF-0.03607084104104943
aF-0.0030842034338762776
aF-0.003555287833205857
aF-0.008895398572922075
aF-0.0038651809304384357
aF0.0038301247561082115
aF-0.0032360443105852116
aF-0.006975936811829795
aF-0.0013904780239613716
aF0.009077083072994789
aF-0.0038476227743345654
aF-0.003234854641130565
aF-0.060940269717168594
aF-0.0027440452790997273
aF-0.029387786809068055
aF-8.208541781184976e-05
aF-0.0032767533192881015
aF0.007711061632744667
aF-0.02089746886225132
aF0.0002636196915172641
aF-0.003684451858797212
aF-0.002065963497228105
aF-0.0045889611185105745
aF0.0071496616517948254
aF-0.008267517760760148
aF-0.0023618333499662554
aF-0.0034329938962117585
aF-0.0028089280292645305
aF0.005854121951451557
aF0.01994575155504435
aF-0.01036250091412972
aF0.0073294617051223206
aF-0.0058142307522111025
aF-0.0023065180192498266
aF-0.0021235928403327935
aF-0.0029035915298248147
aF-0.0006002069631839387
aF-0.009066809301706976
aF0.00091914278398062
aF-0.007179986331203385
aF-0.0055573799345803865
aF0.00017610682456410762
aF-0.04024289305892662
aF0.009077083072994789
aF-0.004465680571608598
aF-0.006086248243905652
aF-0.004890853936537331
aF-0.023277781663771615
aF0.0011674421598975786
aF0.028393057563717256
aF0.01826427148320562
aF0.004857613480546858
aF0.0027069166661000815
aF-0.0006383201217522233
aF-0.008343738749896426
aF-0.1220375017096308
aF-0.0002655324751160565
aF-0.012949729029881686
aF-0.04108729401089482
aF-0.00446014290995509
aF-0.002065963497228105
aF-0.013590577315377335
aF0.007060507325761704
aF0.002611523379267981
aF-0.024706131162147614
aF-0.0035710780869399775
aF0.0037729509498603173
aF0.013514092898844799
aF-0.0018306579695856215
aF-0.008918700436243177
aF0.003170177573516611
aF0.0057061832329113995
aF-0.009106949879104721
aF-0.0028386145515862655
aF-0.0038974207701338135
aF-0.004780625232519215
aF0.008690324733075317
aF-0.008376630300993174
aF0.006915749352812138
aF0.015375326602267687
aF-0.006596572182372186
aF-0.003413053102657405
aF-0.006156316665168843
aF-0.005781891297642108
aF-0.004790232256534885
aF0.006081946701762035
aF-0.0027440452790997273
aF-0.03889842728854632
aF-0.014066730787659819
aF-0.002596206567729768
aF-0.023871898893657092
aF0.0022097818455972537
aF0.004100397153455516
aF0.0015235512684205251
aF-0.014305490750460574
aF-0.008588972297794392
aF-0.021067481654567916
aF0.0
aF0.0022048654626707145
aF-0.007666088811713944
aF-0.0044788972982668235
aF-0.01659673604622855
aF-0.0025453777024034953
aF0.009404228345489053
aF0.014386614252630627
aF-0.02527032090488444
aF0.005268488643503622
aF0.0
aF-0.023402495316012687
aF-0.022684173206211657
aF-0.027127868143728553
aF-0.009274405744958691
aF-0.008707597751161714
aF-0.0028605920588023886
aF0.0024427790597205843
aF-0.0016384852741228983
aF-0.0032360443105852116
aF-0.015037969297126285
aF-0.0038406669386319395
aF-0.05007177231280431
aF-0.01128549406187302
aF0.0
aF-0.004627372917486404
aF-0.0006002069631839387
aF0.0043844197356276565
aF0.003606700247459349
aF-0.0033266053080387185
aF-0.014487260010327364
aF-0.003126242033842467
aF-0.09524002323513743
aF-0.008613379808569398
aF-0.00445619268137418
aF-0.022966213533995194
aF-0.0002228513015364304
aF-0.00351837428165622
aF-0.02044402613209391
aF-0.006040995303041008
aF-0.006089792256901308
aF-0.004158488617054835
aF0.012987628668845229
aF-0.002186858216085496
aF-0.012881641344402325
aF-0.016366163956062676
aF-0.004369516127128379
aF-0.004425065629270632
aF-0.010926733341459733
aF-0.00537522485706427
aF-0.0469814809866893
aF0.007314407302444002
aF-0.002336826318997918
aF-0.052765642463478424
aF0.005233840324776546
aF-0.010080221043525898
aF-0.0031296684333364743
aF-0.007859488334072734
aF-0.00438101782508322
aF-0.00015661006847381403
aF0.002197750836737428
aF-0.012551417912589567
aF-0.01979665251925714
aF-0.01304275037911359
aF0.00695593852070298
aF0.0067083232534820535
aF-0.0029435602319384776
aF-0.004301419019181056
aF0.008055118666535304
aF0.004868632159584823
aF-0.0075792710599345975
aF-0.0025821378709554184
aF-0.0030258456350946827
aF-0.0018306579695856215
aF-0.022454127715793464
aF-0.0011315769782259768
aF-0.014172083422423723
aF0.005486603276488137
aF0.001532011226662311
aF-0.03210899046416693
aF-0.0031405876275471638
aF-0.00289880581698636
aF0.002753067883470094
aF-0.045136178175610116
aF0.021118329577070785
aF0.009236079960858158
aF-0.012071494425126686
aF-0.005484915789995562
aF0.0
aF-0.014268104107713755
aF0.007557943036056052
aF-0.08972670814618071
aF0.003310627354709924
aF-0.024912299799948412
aF0.007711061632744667
aF-0.006096511166257859
aF-0.029296929728514325
aF-0.008668449903862266
aF0.009806346147443412
aF-0.00029637729735710423
aF0.0
aF-0.07634469083629501
aF0.0055631769165734694
aF-0.026534608227553252
aF-0.00661783505000579
aF0.00699636926322106
aF-0.0023065180192498266
aF0.0072075999390736785
aF-0.003665725963435873
aF-0.040340819708559746
aF-0.010871783094723923
aF-0.0031626811091213687
aF-0.019677043264976865
aF-0.002622620951263056
aF-0.03664201005311918
aF-0.00029641192976157774
aF-0.03070236922922617
aF-0.015583037041984426
aF-0.0037459707558009448
aF-0.031373735073534616
aF-0.004412228821225974
aF-0.011123378224772978
aF-0.015425052042204465
aF-0.06688296497812288
aF-0.0038141521606988326
aF-0.09217488376964147
aF0.00039901788322608357
aF-0.01665189517959749
aF0.0
aF-0.004880714108663462
aF-0.007272503115351901
aF0.0067083232534820535
aF-0.025888872297063405
aF-0.030238485971503196
aF0.005878286525493203
aF-0.0036460639793580055
aF0.0074326571168832605
aF0.007770204514965679
aF0.004283503025881636
aF-0.003413053102657405
aF0.010979753168318077
aF-0.023557898975016422
aF0.0030543976760840593
aF-0.009755137834450808
aF-0.0023130846657666146
aF-0.0036498516271240887
aF-0.01195769390892375
aF-0.002908082342723181
aF-0.08133139160873382
aF0.0004994788662910242
aF-0.002384482182631266
aF-0.0004952456789676513
aF-0.004251516404140938
aF-0.004894079495017818
aF0.006038165561096553
aF-0.01350842706990733
aF-0.009955130467703186
aF-0.007462757899239569
aF0.006137323354936666
aF0.005685283196296063
aF-0.0005572861076431439
aF-0.004261627873955407
aF-0.004170963431222661
aF-0.0035210959373638126
aF0.009256518192427794
aF-0.04516786233239545
aF-0.0030695524222959236
aF-0.09736942041927427
aF0.004464875066624508
aF0.0019085090098997946
aF-0.005546996641334088
aF-0.004957644386040241
aF-0.011507459375529628
aF-0.01856452733262852
aF-0.010201144476711117
aF-0.024493186624260553
aF-0.007139231396996914
aF-0.02597241136148031
aF-0.0026932946863113113
aF-0.0047727573620669475
aF-0.015957011935403827
aF-0.0016591896486152628
aF-0.0018296330159433645
aF0.019495126443572895
aF0.005938543059788408
aF-0.09748095507561258
aF-0.0025233918196113443
aF-0.005225719420924038
aF-0.03161921273904291
aF-0.0037665457472208412
aF0.000675690542731295
aF-0.0017928783812141806
aF-0.0027611899250167575
aF0.003172956739697296
aF-0.004868568035854885
aF-0.0040941725954349115
aF-0.008222828877193876
aF-0.0021040058937679103
aF0.005796601964166037
aF-0.003211098199557002
aF-0.0016918916518628673
aF-0.045958791546294606
aF-0.08608164310895661
aF0.004679785287635454
aF-0.03627176071019739
aF-0.004895209666387184
aF0.011079738518625216
aF-0.06304677720544082
aF-0.017009766523275523
aF5.500251862936348e-05
aF-0.009893222286503293
aF0.007182378107546843
aF0.004565020098204121
aF-0.00785949705578803
aF-0.042561986478118444
aF0.0
aF-0.0014476196435427727
aF0.0066573907658237265
aF0.005329008867376396
aF-0.003234854641130565
aF-0.007795541064044622
aF-0.04347870065897153
aF-0.0032360443105852116
aF-0.011012729308791762
aF-0.004288890284528958
aF0.0
aF-0.016743675251214767
aF-0.003468404039503989
aF-0.010001059094781755
aF-0.011184460174407157
aF-0.004938885957326064
aF0.007557943036056052
aF-0.04354472358038704
aF-0.012926881597318526
aF-0.033497874928368546
aF-0.0023618333499662554
aF-0.033664146200782764
aF0.002175067883037004
aF0.0015741037867859175
aF0.00038228968327332536
aF-0.004370114777255561
aF-0.026738862839364008
aF-0.11892780575127469
aF0.0026011794113070265
aF0.0025396587980273232
aF0.00022347115951083124
aF-0.002597336787367607
aF0.0
aF0.0023537177044061436
aF-0.0007293106760154145
aF-0.004548635783484021
aF0.0031561517484809598
aF-0.09272314780431713
aF-0.041108484201630706
aF-0.006890731415455502
aF-5.28846797108835e-05
aF-0.0006002069631839387
aF-0.0053756268147987585
aF-0.0028434696491060744
aF0.00849343864667829
aF-0.0015985345824829583
aF-0.0018400390404427706
aF0.0
aF-0.006281322725140627
aF0.00019623101672562593
aF-0.007646436905235598
aF-0.0006002069631839387
aF-0.003967612789311218
aF0.0
aF-0.013195203999077402
aF-0.0037367192454204777
aF-0.03780433193995986
aF-0.006867146614543592
aF-0.004447239900604787
aF0.01224290358172836
aF-0.032033771972257506
aF0.0
aF-0.004347134690683422
aF0.011817809952773234
aF0.009325616144207835
aF-0.0039309296319987586
aF-0.007851665730291037
aF-0.007505374001757277
aF0.0056606190104626294
aF-0.09359311716307235
aF-0.007065817120175302
aF0.0
aF-0.001818992173646045
aF0.015615968740380503
aF-0.005401815184035431
aF0.009540253965459074
aF-0.0038217983765603176
aF-0.006019330714805618
aF0.0010116733639785602
aF-0.0076615394970898035
aF-0.02918139186727898
aF-0.00016905950007206942
aF-0.002430039963002754
aF-0.010124853153316142
aF0.00037441288153323483
aF-0.028527334392675723
aF-0.001886434406199455
aF-0.011929305314368546
aF-0.002804335649862708
aF-0.00792432004508686
aF-0.0006764111710761532
aF0.005280909293596241
aF-0.0006002069631839387
aF-0.004587463317026703
aF-0.004510455326774785
aF-0.0006002069631839387
aF0.00022750650071853406
aF0.000366700557074893
aF0.0011647874298431797
aF-0.004459827512730593
aF-0.003207344976810254
aF-0.07301372320785499
aF0.0
aF0.005418499483227528
aF-0.004370114777255561
aF-0.017428006875081514
aF-0.010293811268187575
aF-0.0032360443105852116
aF-0.009374329282586755
aF-0.004030900736039361
aF-0.011845884339969855
aF-0.00289880581698636
aF-0.0037229116519931775
aF-0.00173604856552693
aF-0.0035555064765061452
aF0.007895768064403912
aF-0.01021674713322435
aF0.007405431043573206
aF0.0
aF-0.003177222121920555
aF-0.003402776025423867
aF-0.021011322139165893
aF0.005362430261115491
aF-0.0045323352794111775
aF0.009404228345489053
aF-0.0006054952087947464
aF-0.0068507475716562
aF-0.027258771737525608
aF-0.13870784950669518
aF-0.003122044908972923
aF-0.030787091858400048
aF-0.0022394486491334117
aF-0.004724075344565963
aF-0.018882297196086823
aF-0.042955648967786364
aF-0.02804218414857466
aF0.020558926966535232
aF0.0023667216748319794
aF-0.0019198825036227294
aF-0.00475577440556426
aF0.005705133046285517
aF0.0071496616517948254
aF0.0
aF-0.0005831319689014525
aF-0.005097674165873838
aF-0.0026941558723119485
aF-0.005557844550807712
aF-0.018284612140237747
aF-0.008581830150926907
aF-0.004364769244013979
aF-0.0017467783080836433
aF0.007912825455847235
aF-0.00094531891618531
aF0.007340921240108095
aF-0.054577124762608335
aF-0.11145410160235147
aF-0.003928474997547545
aF0.0
aF-0.003293994412415316
aF-0.025008440202594823
aF-0.002011878428797337
aF-0.004063098203769177
aF0.0023667080594681825
aF-0.010533666947395093
aF0.02668548777974642
aF-0.061292295591744705
aF-0.01886264375759905
aF-0.009650519885762146
aF0.0
aF-0.0075987078464826085
aF0.006223268339198002
aF-0.024936946059586358
aF-0.004311669576450109
aF0.012884140712743564
aF-0.0033530139533092247
aF0.005216576494840468
aF-0.0031593666380720863
aF0.0050573921715181035
aF-0.008390299687096033
aF-0.007633262339912908
aF-0.04332962072184772
aF-0.0023401316506511177
aF-0.009146762285994465
aF0.007202490936852147
aF0.008376160467450811
aF-0.016506254682297987
aF-0.01722275051885416
aF0.009811220862094915
aF-0.008317800436902355
aF0.01846244831829992
aF-0.012542595216294684
aF-0.02084854531205959
aF0.006727234157584768
aF0.004774476938240846
aF-0.0023241006769353146
aF-0.010397554041810865
aF-0.010441071436685519
aF0.006961260859645312
aF-0.08442639733492967
aF0.008690324733075317
aF0.007674948781058728
aF0.009523338868109276
aF0.013608518204293457
aF0.0006371849262180101
aF0.010695578649674102
aF-0.0033446826315286617
aF-0.0017111778356702979
aF-0.07394480389390262
aF-0.0006002069631839387
aF-0.04365163833326926
aF-0.02335029289070648
aF0.005026965423511091
aF-0.0009375925226587345
aF-0.05767510778320128
aF0.0
aF0.008776305637809746
aF-0.005876190101485692
aF0.0076075488675555955
aF0.002877424583157691
aF-0.004531754455288078
aF-0.11069637130361433
aF0.0
aF-0.003914691050787913
aF0.0022265157544913493
aF0.005457150684888666
aF-0.04651514265855784
aF0.00589766737630407
aF-0.13112861544133733
aF-0.004586571797238465
aF-0.12861611220716376
aF-0.0029641199564038236
aF0.009539662899504017
aF-0.029926809925134985
aF-0.07005564751037531
aF0.0018753715244056663
aF-0.005467113036414145
aF-0.01061910566547398
aF-0.0038454892153880864
aF-0.010790623480297655
aF0.0028045778748548023
aF-0.030773358619485137
aF0.0013970052702860633
aF-0.006778583339567426
aF0.005289204240425888
aF-0.002874561898650419
aF-0.00289880581698636
aF0.008004091888609328
aF-0.028579213862987042
aF-0.0026576957186532977
aF-0.006308580958186478
aF-0.0016898963161494328
aF-0.06470507363797261
aF-0.011756698131817376
aF-0.019648268494202203
aF0.009540253965459074
aF-0.0034556140463361195
aF-0.05531389747774289
aF-0.03052729061228815
aF-0.06224718522536475
aF-0.013880357982423971
aF-0.04870395079904915
aF-0.015244534105812344
aF-0.0486594043230602
aF-0.02826152612388949
aF0.009589887096931444
aF-0.008255324841577491
aF0.007749138396773346
aF-0.0392972894803065
aF-0.008334305334366427
aF-0.034789332727815564
aF-0.0038974207701338135
aF-0.0033452566154303105
aF-0.006886946358656045
aF-0.03821641494097153
aF-0.012229021013571177
aF-0.004194135830638076
aF-0.0016410741838941314
aF-0.001321387273174973
aF0.0016463684515659756
aF-0.01585132230122187
aF-0.005210655236598211
aF-0.03637177293405542
aF-0.02334603164012398
aF0.011294627811924147
aF-0.011116555803482772
aF0.009864329268045086
aF0.00018314951868497048
aF-0.03537011350637634
aF-0.039033494638739515
aF-0.035997801002891745
aF-0.00308261909912144
aF-0.02147763203567117
aF-0.030985003236683923
aF-0.027384516918869853
aF-0.008958114894009614
aF-0.03564591857198361
aF-0.01382376183483128
aF0.003890873414622163
aF-0.0035473178504985903
aF0.005366028833635664
aF-0.0317184413782904
aF-0.008906710879708686
aF-0.01579016747459737
aF-0.061671810987202896
aF-0.0011316513790552937
aF0.009015673732803384
aF-0.03736604549277365
aF-0.001351447342354714
aF-0.004294710081093334
aF-0.044653653190426364
aF-0.022689566593183882
aF-0.02978096412944733
aF-0.01663089605856448
aF-0.004490588209165655
aF0.0004932966080514528
aF0.002959046628901344
aF-0.04238211110477313
aF-0.007702582927943961
aF-0.06266963910923018
aF-0.007571467475879776
aF-0.0052352508213156165
aF-0.003597538762370528
aF-0.0012802384760662252
aF-0.00308261909912144
aF-0.031475872747136216
aF-0.001321387273174973
aF-0.0029995447857400393
aF-0.032900153309689116
aF-0.012690434849595447
aF-0.06429922856331116
aF-0.010803984620778112
aF-0.03597589920706311
aF-0.011108671915670866
aF-0.06457761626912724
aF-0.04778383800143601
aF-0.00466727455583953
aF0.005118538167836452
aF-0.034669701515577
aF-0.0034779705356081207
aF-0.06389427389441836
aF0.0
aF-0.03336360004227457
aF-0.014078609640074322
aF-0.00021813609015219307
aF-0.01607607364809733
aF-0.04545563656096152
aF-0.03579540119559767
aF-0.078152282559324
aF0.00578842823623919
aF-0.024930464149318696
aF-0.024692961162013125
aF-0.007518948197507076
aF0.004031894022122113
aF0.018210760894582945
aF-0.011638520747031178
aF0.005488685115090571
aF0.008377603544029989
aF-0.023539264684759052
aF-0.012757899589580351
aF-0.009657623622013885
aF-0.017630401497258138
aF-0.04112221803439123
aF0.008849151626529833
aF-0.04771607666792763
aF0.0
aF-0.0071865925978365835
aF0.009797421198142508
aF-0.01922065167301187
aF-0.010812319384061218
aF-0.03023342381003503
aF0.004781530900618269
aF0.004144542793638652
aF-0.0637990384667301
aF-0.004776766537475111
aF-0.035566719580349564
aF-0.0004243895968238619
aF0.015574693720907577
aF-0.05172771904612422
aF-0.010574200089431801
aF-0.024637571765901214
aF-0.008780701465905566
aF-0.03997127084273882
aF-0.00914806414631078
aF-0.0060973924881666365
aF-0.008118176615092296
aF0.0068654402714071975
aF-0.0012802384760662252
aF-0.03463359211882843
aF-0.007391059291882488
aF-0.03498228778896259
aF-0.010587994963012756
aF-0.010967889819536236
aF-0.014810640596876966
aF-0.07113728505826
aF-0.0664298457204802
aF-0.02920225734019573
aF-0.02052559470752383
aF0.003803290830377745
aF0.009531896862077175
aF-0.064385990590702
aF-0.0026298053550961203
aF-0.04054589603040169
aF-0.017617696986794138
aF-0.04033457123649573
aF0.005253044465012151
aF-0.04134772769169449
aF-0.039107892835340476
aF-0.01091132591373829
aF0.0011998284900682178
aF0.007202194731036624
aF-0.004447239900604787
aF0.006584544326407952
aF-0.001802626443103134
aF-0.04013363043367805
aF0.0
aF0.0015927447171463598
aF-0.04982599205906439
aF-0.019492757889289468
aF0.0050573921715181035
aF-0.005675018498846267
aF-0.01771346971751753
aF0.0015593992651118634
aF-0.0647267130412752
aF0.0011323039952256843
aF-0.009091179342832378
aF-0.002421015267562743
aF-0.03777475560333656
aF-0.07875148457225549
aF-0.015465398532684867
aF-0.010763333495121534
aF0.002335431260380821
aF-0.03524514051114646
aF-0.00262086979109001
aF0.0008160519637408578
aF-0.003145494109580469
aF-0.039401026407014796
aF-0.048548325983032097
aF-0.0013196847146227022
aF-0.03441829280523478
aF0.005798336372465212
aF-0.00173604856552693
aF-0.021034151440978106
aF-0.01643090452514365
aF-0.02629142285909998
aF0.0161363090520786
aF-0.03438132788146571
aF0.009464826672837724
aF-0.0026340859276563085
aF-0.009216049465471846
aF-0.0047157329436439775
aF-0.04018605685385016
aF-0.007118345563015434
aF-0.002797673797188529
aF-0.006461801819551483
aF0.004739874097921832
aF-0.008486701889905246
aF-0.034387403109066156
aF-0.011750294150924979
aF-0.011643745809900982
aF0.002029300764843957
aF-0.0038864921043925875
aF-0.005916348737976614
aF-0.01978624904646404
aF-0.03854009623262814
aF-0.01586069581479662
aF-0.007901127183265659
aF0.001238730431090226
aF-0.002421015267562743
aF-0.04067428067583629
aF-0.03475499431406606
aF-0.02127746302720694
aF-0.009422717318770268
aF-0.0012852496950667054
aF-0.0010357793847619854
aF-0.009186963624401353
aF-0.027497646268958925
aF-0.044653653190426364
aF-0.05465228539201519
aF0.012846581869125243
aF0.00861355073058141
aF-0.009994828827332687
aF0.0032055099155169848
aF-0.013397763916127854
aF-0.03837306011968598
aF-9.556620337090743e-05
aF-0.06499688720313324
aF-0.03633902719965477
aF-0.02727816211105085
aF-0.008343561914481584
aF-0.020299476739057156
aF-0.021646830467867067
aF-0.01950129441176544
aF0.009161156800419103
aF-0.07250714333379579
aF-0.002421015267562743
aF-0.04860474219377204
aF-0.040578121174604936
aF-0.0030160111483009686
aF-0.01964513036130028
aF0.005769348303115341
aF-0.05054285541680554
aF0.008136998305413366
aF-0.010882294516998813
aF-0.016793187824952992
aF0.011786999026153188
aF0.007911496252840294
aF-0.002785460487677071
aF-0.005317777074147944
aF0.004188596412343882
aF-0.03560217731331175
aF-0.07552638190116806
aF-0.003959676057885321
aF0.004595233515900077
aF0.007601727680790919
aF-0.002939755338580815
aF-0.01621405432508136
aF-0.008407055228190392
aF0.0005183730094753069
aF-0.002708221383547634
aF-0.08240004154148158
aF0.00582590640830301
aF-0.0028962192528148717
aF0.005458773928464855
aF-0.03560217731331175
aF-0.002450827916546994
aF-0.01004153280824646
aF-0.018123823667803955
aF-0.01633516307123979
aF-0.06188754447823155
aF0.013809084768150907
aF-0.06438823408079328
aF-0.027592444587691115
aF-0.001826950276607445
aF-0.06457536190588342
aF-0.004695231865612256
aF-0.002385341136108719
aF-0.0013222398901856234
aF-0.006251008237123747
aF-0.08609030912974447
aF-0.0008461615574288003
aF-0.028266018859572316
aF-0.011470218780857102
aF-0.013535880165903366
aF-0.0032504413813378872
aF-0.015732656292390505
aF-0.00173604856552693
aF0.0018380454705130657
aF-0.0360147019717749
aF0.0010648989423539367
aF-0.049301660871537305
aF0.0012856403190977753
aF-0.041725772039616214
aF0.0022309630513140063
aF0.0083940734323676
aF0.002829417617996435
aF-0.0162312661635475
aF-0.0026298053550961203
aF-0.010104516398820736
aF-0.02920225734019573
aF-0.002818786237110372
aF-0.055400657954420014
aF0.0007105024866245722
aF-0.03866652475924813
aF-0.019492757889289468
aF-0.03881613521372847
aF-0.007239237222513046
aF0.011895400218425792
aF0.00031533495058196667
aF-0.03560217731331175
aF-0.009169210520419609
aF0.013110474505076642
aF-0.003859922670723165
aF0.0013451654532335244
aF-0.018139196841274435
aF-0.0013196847146227022
aF-0.00927840367146501
aF-0.010529698375913025
aF-0.07757110002674406
aF-0.014325667238430095
aF-0.007325283955516185
aF-0.0158455182452182
aF-0.004179393210062046
aF-0.006505759724037201
aF-0.0018591811969935423
aF-0.022153283634867352
aF-0.0021814000945046246
aF-0.00173604856552693
aF-0.037616533265439345
aF-0.006786691049645384
aF-0.0046530340522147285
aF-0.016136890306287406
aF0.002432615732049345
aF0.0072691379792409186
aF-0.020153693507438314
aF-0.0059501161125393755
aF-0.00173604856552693
aF0.0037450770406561246
aF-0.0026451538476416955
aF-0.0034189447325882415
aF-0.011474883101190762
aF0.008577630258614011
aF0.006652924301438566
aF-0.00019703367362871682
aF-0.0021965309834146166
aF-0.005980835011170003
aF0.00022791223662422654
aF-0.05998706016911259
aF-0.019388217158022768
aF0.00596265474419762
aF-0.04488792097123635
aF-0.009338957650464249
aF-0.00173604856552693
aF-0.00173604856552693
aF0.0
aF0.0
aF0.0
aF0.0
aF0.0
aF0.0
aF0.0
aF0.0
aF0.0
aF0.0
aF0.0
aF0.0
aF0.0
aF0.0
aF0.0
aF0.0
aF0.0
aF0.0
aF0.0
aF0.0
aF0.0
aF0.0
aF0.0
aF0.0
aF0.0
aF0.0
aF0.0
aF0.0
aF0.0
aF0.0
aF0.0
aF0.0
aF0.0
aF0.0
aF0.0
aF0.0
aF0.0
aF0.0
aF0.0
aF0.0
aF0.0
aF0.0
aF0.0
aF0.0
aF0.0
aF0.0
aF0.0
aF0.0
aF0.0
aF0.0
aF0.0
aF0.0
aF0.0
aF0.0
aF0.0
aF0.0
aF0.0
aF0.0
aF0.0
aF0.0
aF0.0
aF0.0
aF0.0
aF0.0
aF0.0
aF0.0
aF0.0
aF0.0
aF0.0
aF0.0
aF0.0
aF0.0
aF0.0
aF0.0
aF0.0
aF0.0
aF0.0
aF0.0
aF0.0
aF0.0
aF0.0
aF0.0
aF0.0
aF0.0
aF0.0
aF0.0
aF0.0
aF0.0
aF0.0
aF0.0
aF0.0
aF0.0
aF0.0
aF0.0
aF0.0
aF0.0
aF0.0
aF0.0
aF0.0
aF0.0
aF0.0
aF0.0
aF0.0
aF0.0
aF0.0
aF0.0
aF0.0
aF0.0
aF0.0
aF0.0
aF0.0
aF0.0
aF0.0
aF0.0
aF0.0
aF0.0
aF0.0
aF0.0
aF0.0
aF0.0
aF0.0
aF0.0
aF0.0
aF0.0
aF0.0
aF0.0
aF0.0
aF0.0
aF0.0
aF0.0
aF0.0
aF0.0
aF0.0
aF0.0
aF0.0
aF0.0
aF0.0
aF0.0
aF0.0
aF0.0
aF0.0
aF0.0
aF0.0
aF0.0
aF0.0
aF0.0
aF0.0
aF0.0
aF0.0
aF0.0
aF0.0
aF0.0
aF0.0
aF0.0
aF0.0
aF0.0
aF0.0
aF0.0
aF0.0
aF0.0
aF0.0
aF0.0
aF0.0
aF0.0
aF0.0
aF0.0
aF0.0
aF0.0
aF0.0
aF0.0
aF0.0
aF0.0
aF0.0
aF0.0
aF0.0
aF0.0
aF0.0
aF0.0
aF0.0
aF0.0
aF0.0
aF0.0
aF0.0
aF0.0
aF0.0
aF0.0
aF0.0
aF0.0
aF0.0
aF0.0
aF0.0
aF0.0
aF0.0
aF0.0
aF0.0
aF0.0
aF0.0
aF0.0
aF0.0
aF0.0
aF0.0
aF0.0
aF0.0
aF0.0
aF0.0
aF0.0
aF0.0
aF0.0
aF0.0
aF0.0
aF0.0
aF0.0
aF0.0
aF0.0
aF0.0
aF0.0
aF0.0
aF0.0
aF0.0
aF0.0
aF0.0
aF0.0
aF0.0
aF0.0
aF0.0
aF0.0
aF0.0
aF0.0
aF0.0
aF0.0
aF0.0
aF0.0
aF0.0
aF0.0
aF0.0
aF0.0
aF0.0
aF0.0
aF0.0
aF0.0
aF0.0
aF0.0
aF0.0
aF0.0
aF0.0
aF0.0
aF0.0
aF0.0
aF0.0
aF0.0
aF0.0
aF0.0
aF0.0
aF0.0
aF0.0
aF0.0
aF0.0
aF0.0
aF0.0
aF0.0
aF0.0
aF0.0
aF0.0
aF0.0
aF0.0
aF0.0
aF0.0
aF0.0
aF0.0
aF0.0
aF0.0
aF0.0
aF0.0
aF0.0
aF0.0
aF0.0
aF0.0
aF0.0
aF0.0
aF0.0
aF0.0
aF0.0
aF0.0
aF0.0
aF0.0
aF0.0
aF0.0
aF0.0
aF0.0
aF0.0
aF0.0
aF0.0
aF0.0
aF0.0
aF0.0
aF0.0
aF0.0
aF0.0
aF0.0
aF0.0
aF0.0
aF0.0
aF0.0
aF0.0
aF0.0
aF0.0
aF0.0
aF0.0
aF0.0
aF0.0
aF0.0
aF0.0
aF0.0
aF0.0
aF0.0
aF0.0
aF0.0
aF0.0
aF0.0
aF0.0
aF0.0
aF0.0
aF0.0
aF0.0
aF0.0
aF0.0
aF0.0
aF0.0
aF0.0
aF0.0
aF0.0
aF0.0
aF0.0
aF0.0
aF0.0
aF0.0
aF0.0
aF0.0
aF0.0
aF0.0
aF0.0
aF0.0
aF0.0
aF0.0
aF0.0
aF0.0
aF0.0
aF0.0
aF0.0
aF0.0
aF0.0
aF0.0
aF0.0
aF0.0
aF0.0
aF0.0
aF0.0
aF0.0
aF0.0
aF0.0
aF0.0
aF0.0
aF0.0
aF0.0
aF0.0
aF0.0
aF0.0
aF0.0
aF0.0
aF0.0
aF0.0
aF0.0
aF0.0
aF0.0
aF0.0
aF0.0
aF0.0
aF0.0
aF0.0
aF0.0
aF0.0
aF0.0
asVmu
p9
F1.0
sb.